
Smart House.elf:     file format elf32-avr

Sections:
Idx Name          Size      VMA       LMA       File off  Algn
  0 .text         00001b6e  00000000  00000000  00000094  2**1
                  CONTENTS, ALLOC, LOAD, READONLY, CODE
  1 .data         000001da  00800060  00001b6e  00001c02  2**0
                  CONTENTS, ALLOC, LOAD, DATA
  2 .bss          000002db  0080023a  0080023a  00001ddc  2**0
                  ALLOC
  3 .comment      00000030  00000000  00000000  00001ddc  2**0
                  CONTENTS, READONLY
  4 .note.gnu.avr.deviceinfo 0000003c  00000000  00000000  00001e0c  2**2
                  CONTENTS, READONLY
  5 .debug_info   000004e6  00000000  00000000  00001e48  2**0
                  CONTENTS, READONLY, DEBUGGING
  6 .debug_abbrev 000004a3  00000000  00000000  0000232e  2**0
                  CONTENTS, READONLY, DEBUGGING
  7 .debug_line   00000116  00000000  00000000  000027d1  2**0
                  CONTENTS, READONLY, DEBUGGING
  8 .debug_str    00000196  00000000  00000000  000028e7  2**0
                  CONTENTS, READONLY, DEBUGGING

Disassembly of section .text:

00000000 <__vectors>:
       0:	0c 94 31 00 	jmp	0x62	; 0x62 <__ctors_end>
       4:	0c 94 0f 09 	jmp	0x121e	; 0x121e <__vector_1>
       8:	0c 94 38 09 	jmp	0x1270	; 0x1270 <__vector_2>
       c:	0c 94 62 09 	jmp	0x12c4	; 0x12c4 <__vector_3>
      10:	0c 94 4e 00 	jmp	0x9c	; 0x9c <__bad_interrupt>
      14:	0c 94 4e 00 	jmp	0x9c	; 0x9c <__bad_interrupt>
      18:	0c 94 32 0b 	jmp	0x1664	; 0x1664 <__vector_6>
      1c:	0c 94 e0 0a 	jmp	0x15c0	; 0x15c0 <__vector_7>
      20:	0c 94 09 0b 	jmp	0x1612	; 0x1612 <__vector_8>
      24:	0c 94 b7 0a 	jmp	0x156e	; 0x156e <__vector_9>
      28:	0c 94 18 0a 	jmp	0x1430	; 0x1430 <__vector_10>
      2c:	0c 94 ef 09 	jmp	0x13de	; 0x13de <__vector_11>
      30:	0c 94 8b 09 	jmp	0x1316	; 0x1316 <__vector_12>
      34:	0c 94 73 0b 	jmp	0x16e6	; 0x16e6 <__vector_13>
      38:	0c 94 4e 00 	jmp	0x9c	; 0x9c <__bad_interrupt>
      3c:	0c 94 9c 0b 	jmp	0x1738	; 0x1738 <__vector_15>
      40:	0c 94 4e 00 	jmp	0x9c	; 0x9c <__bad_interrupt>
      44:	0c 94 e6 08 	jmp	0x11cc	; 0x11cc <__vector_17>
      48:	0c 94 4e 00 	jmp	0x9c	; 0x9c <__bad_interrupt>
      4c:	0c 94 4e 00 	jmp	0x9c	; 0x9c <__bad_interrupt>
      50:	0c 94 4e 00 	jmp	0x9c	; 0x9c <__bad_interrupt>
      54:	4b 0a       	sbc	r4, r27
      56:	53 0a       	sbc	r5, r19
      58:	58 0a       	sbc	r5, r24
      5a:	63 0a       	sbc	r6, r19
      5c:	65 0a       	sbc	r6, r21
      5e:	6d 0a       	sbc	r6, r29
      60:	6f 0a       	sbc	r6, r31

00000062 <__ctors_end>:
      62:	11 24       	eor	r1, r1
      64:	1f be       	out	0x3f, r1	; 63
      66:	cf e5       	ldi	r28, 0x5F	; 95
      68:	d8 e0       	ldi	r29, 0x08	; 8
      6a:	de bf       	out	0x3e, r29	; 62
      6c:	cd bf       	out	0x3d, r28	; 61

0000006e <__do_copy_data>:
      6e:	12 e0       	ldi	r17, 0x02	; 2
      70:	a0 e6       	ldi	r26, 0x60	; 96
      72:	b0 e0       	ldi	r27, 0x00	; 0
      74:	ee e6       	ldi	r30, 0x6E	; 110
      76:	fb e1       	ldi	r31, 0x1B	; 27
      78:	02 c0       	rjmp	.+4      	; 0x7e <__do_copy_data+0x10>
      7a:	05 90       	lpm	r0, Z+
      7c:	0d 92       	st	X+, r0
      7e:	aa 33       	cpi	r26, 0x3A	; 58
      80:	b1 07       	cpc	r27, r17
      82:	d9 f7       	brne	.-10     	; 0x7a <__do_copy_data+0xc>

00000084 <__do_clear_bss>:
      84:	25 e0       	ldi	r18, 0x05	; 5
      86:	aa e3       	ldi	r26, 0x3A	; 58
      88:	b2 e0       	ldi	r27, 0x02	; 2
      8a:	01 c0       	rjmp	.+2      	; 0x8e <.do_clear_bss_start>

0000008c <.do_clear_bss_loop>:
      8c:	1d 92       	st	X+, r1

0000008e <.do_clear_bss_start>:
      8e:	a5 31       	cpi	r26, 0x15	; 21
      90:	b2 07       	cpc	r27, r18
      92:	e1 f7       	brne	.-8      	; 0x8c <.do_clear_bss_loop>
      94:	0e 94 7f 03 	call	0x6fe	; 0x6fe <main>
      98:	0c 94 b5 0d 	jmp	0x1b6a	; 0x1b6a <_exit>

0000009c <__bad_interrupt>:
      9c:	0c 94 00 00 	jmp	0	; 0x0 <__vectors>

000000a0 <Filter_Runnable>:
      a0:	10 92 12 05 	sts	0x0512, r1	; 0x800512 <F_Value+0x1>
      a4:	10 92 11 05 	sts	0x0511, r1	; 0x800511 <F_Value>
      a8:	0e 94 40 03 	call	0x680	; 0x680 <SENSOR_ReadTemp>
      ac:	90 93 0f 05 	sts	0x050F, r25	; 0x80050f <UNF_Value+0x1>
      b0:	80 93 0e 05 	sts	0x050E, r24	; 0x80050e <UNF_Value>
      b4:	20 91 10 05 	lds	r18, 0x0510	; 0x800510 <Filter_INDEX>
      b8:	2a 30       	cpi	r18, 0x0A	; 10
      ba:	10 f0       	brcs	.+4      	; 0xc0 <Filter_Runnable+0x20>
      bc:	10 92 10 05 	sts	0x0510, r1	; 0x800510 <Filter_INDEX>
      c0:	20 91 10 05 	lds	r18, 0x0510	; 0x800510 <Filter_INDEX>
      c4:	e2 2f       	mov	r30, r18
      c6:	f0 e0       	ldi	r31, 0x00	; 0
      c8:	ee 0f       	add	r30, r30
      ca:	ff 1f       	adc	r31, r31
      cc:	e6 50       	subi	r30, 0x06	; 6
      ce:	fb 4f       	sbci	r31, 0xFB	; 251
      d0:	91 83       	std	Z+1, r25	; 0x01
      d2:	80 83       	st	Z, r24
      d4:	80 91 11 05 	lds	r24, 0x0511	; 0x800511 <F_Value>
      d8:	90 91 12 05 	lds	r25, 0x0512	; 0x800512 <F_Value+0x1>
      dc:	ea ef       	ldi	r30, 0xFA	; 250
      de:	f4 e0       	ldi	r31, 0x04	; 4
      e0:	41 91       	ld	r20, Z+
      e2:	51 91       	ld	r21, Z+
      e4:	84 0f       	add	r24, r20
      e6:	95 1f       	adc	r25, r21
      e8:	35 e0       	ldi	r19, 0x05	; 5
      ea:	ee 30       	cpi	r30, 0x0E	; 14
      ec:	f3 07       	cpc	r31, r19
      ee:	c1 f7       	brne	.-16     	; 0xe0 <Filter_Runnable+0x40>
      f0:	90 93 12 05 	sts	0x0512, r25	; 0x800512 <F_Value+0x1>
      f4:	80 93 11 05 	sts	0x0511, r24	; 0x800511 <F_Value>
      f8:	40 91 3a 02 	lds	r20, 0x023A	; 0x80023a <__data_end>
      fc:	31 e0       	ldi	r19, 0x01	; 1
      fe:	32 0f       	add	r19, r18
     100:	41 11       	cpse	r20, r1
     102:	0e c0       	rjmp	.+28     	; 0x120 <Filter_Runnable+0x80>
     104:	63 2f       	mov	r22, r19
     106:	70 e0       	ldi	r23, 0x00	; 0
     108:	0e 94 4b 0d 	call	0x1a96	; 0x1a96 <__udivmodhi4>
     10c:	70 93 12 05 	sts	0x0512, r23	; 0x800512 <F_Value+0x1>
     110:	60 93 11 05 	sts	0x0511, r22	; 0x800511 <F_Value>
     114:	29 30       	cpi	r18, 0x09	; 9
     116:	71 f4       	brne	.+28     	; 0x134 <Filter_Runnable+0x94>
     118:	81 e0       	ldi	r24, 0x01	; 1
     11a:	80 93 3a 02 	sts	0x023A, r24	; 0x80023a <__data_end>
     11e:	0a c0       	rjmp	.+20     	; 0x134 <Filter_Runnable+0x94>
     120:	41 30       	cpi	r20, 0x01	; 1
     122:	41 f4       	brne	.+16     	; 0x134 <Filter_Runnable+0x94>
     124:	6a e0       	ldi	r22, 0x0A	; 10
     126:	70 e0       	ldi	r23, 0x00	; 0
     128:	0e 94 4b 0d 	call	0x1a96	; 0x1a96 <__udivmodhi4>
     12c:	70 93 12 05 	sts	0x0512, r23	; 0x800512 <F_Value+0x1>
     130:	60 93 11 05 	sts	0x0511, r22	; 0x800511 <F_Value>
     134:	30 93 10 05 	sts	0x0510, r19	; 0x800510 <Filter_INDEX>
     138:	08 95       	ret

0000013a <Filter_GetFilteredValue>:
     13a:	80 91 11 05 	lds	r24, 0x0511	; 0x800511 <F_Value>
     13e:	90 91 12 05 	lds	r25, 0x0512	; 0x800512 <F_Value+0x1>
     142:	08 95       	ret

00000144 <AIR_CON_ON>:
     144:	10 92 13 05 	sts	0x0513, r1	; 0x800513 <AIR_OFF_Flag>
     148:	08 95       	ret

0000014a <AIR_CON_OFF>:
     14a:	81 e0       	ldi	r24, 0x01	; 1
     14c:	80 93 13 05 	sts	0x0513, r24	; 0x800513 <AIR_OFF_Flag>
     150:	08 95       	ret

00000152 <Room_ON>:
     152:	81 30       	cpi	r24, 0x01	; 1
     154:	11 f4       	brne	.+4      	; 0x15a <Room_ON+0x8>
     156:	86 e1       	ldi	r24, 0x16	; 22
     158:	03 c0       	rjmp	.+6      	; 0x160 <Room_ON+0xe>
     15a:	82 30       	cpi	r24, 0x02	; 2
     15c:	19 f4       	brne	.+6      	; 0x164 <Room_ON+0x12>
     15e:	8b e1       	ldi	r24, 0x1B	; 27
     160:	0c 94 fe 02 	jmp	0x5fc	; 0x5fc <Led_On>
     164:	08 95       	ret

00000166 <Garage_ON>:
     166:	87 e1       	ldi	r24, 0x17	; 23
     168:	0c 94 fe 02 	jmp	0x5fc	; 0x5fc <Led_On>

0000016c <Room_OFF>:
     16c:	81 30       	cpi	r24, 0x01	; 1
     16e:	11 f4       	brne	.+4      	; 0x174 <Room_OFF+0x8>
     170:	86 e1       	ldi	r24, 0x16	; 22
     172:	03 c0       	rjmp	.+6      	; 0x17a <Room_OFF+0xe>
     174:	82 30       	cpi	r24, 0x02	; 2
     176:	19 f4       	brne	.+6      	; 0x17e <Room_OFF+0x12>
     178:	8b e1       	ldi	r24, 0x1B	; 27
     17a:	0c 94 01 03 	jmp	0x602	; 0x602 <Led_Off>
     17e:	08 95       	ret

00000180 <Garage_OFF>:
     180:	87 e1       	ldi	r24, 0x17	; 23
     182:	0c 94 01 03 	jmp	0x602	; 0x602 <Led_Off>

00000186 <Open_Door>:
     186:	cf 93       	push	r28
     188:	c8 2f       	mov	r28, r24
     18a:	0e 94 55 03 	call	0x6aa	; 0x6aa <Servo1_SetAngle>
     18e:	8a e1       	ldi	r24, 0x1A	; 26
     190:	0e 94 fe 02 	call	0x5fc	; 0x5fc <Led_On>
     194:	c1 11       	cpse	r28, r1
     196:	04 c0       	rjmp	.+8      	; 0x1a0 <Open_Door+0x1a>
     198:	8a e1       	ldi	r24, 0x1A	; 26
     19a:	cf 91       	pop	r28
     19c:	0c 94 01 03 	jmp	0x602	; 0x602 <Led_Off>
     1a0:	cf 91       	pop	r28
     1a2:	08 95       	ret

000001a4 <Open_Garage>:
     1a4:	cf 93       	push	r28
     1a6:	c8 2f       	mov	r28, r24
     1a8:	0e 94 6a 03 	call	0x6d4	; 0x6d4 <Servo2_SetAngle>
     1ac:	87 e1       	ldi	r24, 0x17	; 23
     1ae:	0e 94 fe 02 	call	0x5fc	; 0x5fc <Led_On>
     1b2:	c1 11       	cpse	r28, r1
     1b4:	04 c0       	rjmp	.+8      	; 0x1be <Open_Garage+0x1a>
     1b6:	87 e1       	ldi	r24, 0x17	; 23
     1b8:	cf 91       	pop	r28
     1ba:	0c 94 01 03 	jmp	0x602	; 0x602 <Led_Off>
     1be:	cf 91       	pop	r28
     1c0:	08 95       	ret

000001c2 <Air_ConditionerOn>:
     1c2:	84 31       	cpi	r24, 0x14	; 20
     1c4:	18 f4       	brcc	.+6      	; 0x1cc <Air_ConditionerOn+0xa>
     1c6:	83 e0       	ldi	r24, 0x03	; 3
     1c8:	0c 94 04 03 	jmp	0x608	; 0x608 <MOTOR_Stop>
     1cc:	9c ee       	ldi	r25, 0xEC	; 236
     1ce:	98 0f       	add	r25, r24
     1d0:	9a 30       	cpi	r25, 0x0A	; 10
     1d2:	18 f4       	brcc	.+6      	; 0x1da <Air_ConditionerOn+0x18>
     1d4:	86 e4       	ldi	r24, 0x46	; 70
     1d6:	90 e0       	ldi	r25, 0x00	; 0
     1d8:	0c c0       	rjmp	.+24     	; 0x1f2 <Air_ConditionerOn+0x30>
     1da:	92 ee       	ldi	r25, 0xE2	; 226
     1dc:	98 0f       	add	r25, r24
     1de:	9a 30       	cpi	r25, 0x0A	; 10
     1e0:	18 f4       	brcc	.+6      	; 0x1e8 <Air_ConditionerOn+0x26>
     1e2:	80 e5       	ldi	r24, 0x50	; 80
     1e4:	90 e0       	ldi	r25, 0x00	; 0
     1e6:	05 c0       	rjmp	.+10     	; 0x1f2 <Air_ConditionerOn+0x30>
     1e8:	88 52       	subi	r24, 0x28	; 40
     1ea:	8a 30       	cpi	r24, 0x0A	; 10
     1ec:	60 f7       	brcc	.-40     	; 0x1c6 <Air_ConditionerOn+0x4>
     1ee:	84 e6       	ldi	r24, 0x64	; 100
     1f0:	90 e0       	ldi	r25, 0x00	; 0
     1f2:	0e 94 d2 0b 	call	0x17a4	; 0x17a4 <PWM_Duty_TIMER0>
     1f6:	83 e0       	ldi	r24, 0x03	; 3
     1f8:	0c 94 22 03 	jmp	0x644	; 0x644 <MOTOR_CW>

000001fc <UART_ReceiveTaskAndData>:
     1fc:	cf 93       	push	r28
     1fe:	df 93       	push	r29
     200:	ec 01       	movw	r28, r24
     202:	fb 01       	movw	r30, r22
     204:	10 82       	st	Z, r1
     206:	40 e0       	ldi	r20, 0x00	; 0
     208:	de 01       	movw	r26, r28
     20a:	a4 0f       	add	r26, r20
     20c:	b1 1d       	adc	r27, r1
     20e:	9c 91       	ld	r25, X
     210:	99 23       	and	r25, r25
     212:	81 f0       	breq	.+32     	; 0x234 <UART_ReceiveTaskAndData+0x38>
     214:	80 ed       	ldi	r24, 0xD0	; 208
     216:	89 0f       	add	r24, r25
     218:	8a 30       	cpi	r24, 0x0A	; 10
     21a:	50 f4       	brcc	.+20     	; 0x230 <UART_ReceiveTaskAndData+0x34>
     21c:	20 81       	ld	r18, Z
     21e:	22 0f       	add	r18, r18
     220:	32 2f       	mov	r19, r18
     222:	33 0f       	add	r19, r19
     224:	33 0f       	add	r19, r19
     226:	23 0f       	add	r18, r19
     228:	20 53       	subi	r18, 0x30	; 48
     22a:	92 0f       	add	r25, r18
     22c:	90 83       	st	Z, r25
     22e:	1c 92       	st	X, r1
     230:	4f 5f       	subi	r20, 0xFF	; 255
     232:	ea cf       	rjmp	.-44     	; 0x208 <UART_ReceiveTaskAndData+0xc>
     234:	df 91       	pop	r29
     236:	cf 91       	pop	r28
     238:	08 95       	ret

0000023a <UART_Find_Task>:
     23a:	df 92       	push	r13
     23c:	ef 92       	push	r14
     23e:	ff 92       	push	r15
     240:	0f 93       	push	r16
     242:	1f 93       	push	r17
     244:	cf 93       	push	r28
     246:	df 93       	push	r29
     248:	7c 01       	movw	r14, r24
     24a:	d6 2e       	mov	r13, r22
     24c:	00 e6       	ldi	r16, 0x60	; 96
     24e:	10 e0       	ldi	r17, 0x00	; 0
     250:	c0 e0       	ldi	r28, 0x00	; 0
     252:	d0 e0       	ldi	r29, 0x00	; 0
     254:	b7 01       	movw	r22, r14
     256:	c8 01       	movw	r24, r16
     258:	0e 94 e6 0c 	call	0x19cc	; 0x19cc <string_compare>
     25c:	81 30       	cpi	r24, 0x01	; 1
     25e:	79 f4       	brne	.+30     	; 0x27e <UART_Find_Task+0x44>
     260:	fe 01       	movw	r30, r28
     262:	85 e0       	ldi	r24, 0x05	; 5
     264:	ee 0f       	add	r30, r30
     266:	ff 1f       	adc	r31, r31
     268:	8a 95       	dec	r24
     26a:	e1 f7       	brne	.-8      	; 0x264 <UART_Find_Task+0x2a>
     26c:	e0 5a       	subi	r30, 0xA0	; 160
     26e:	ff 4f       	sbci	r31, 0xFF	; 255
     270:	06 8c       	ldd	r0, Z+30	; 0x1e
     272:	f7 8d       	ldd	r31, Z+31	; 0x1f
     274:	e0 2d       	mov	r30, r0
     276:	8d 2d       	mov	r24, r13
     278:	09 95       	icall
     27a:	8c 2f       	mov	r24, r28
     27c:	07 c0       	rjmp	.+14     	; 0x28c <UART_Find_Task+0x52>
     27e:	21 96       	adiw	r28, 0x01	; 1
     280:	00 5e       	subi	r16, 0xE0	; 224
     282:	1f 4f       	sbci	r17, 0xFF	; 255
     284:	c8 30       	cpi	r28, 0x08	; 8
     286:	d1 05       	cpc	r29, r1
     288:	29 f7       	brne	.-54     	; 0x254 <UART_Find_Task+0x1a>
     28a:	8f ef       	ldi	r24, 0xFF	; 255
     28c:	df 91       	pop	r29
     28e:	cf 91       	pop	r28
     290:	1f 91       	pop	r17
     292:	0f 91       	pop	r16
     294:	ff 90       	pop	r15
     296:	ef 90       	pop	r14
     298:	df 90       	pop	r13
     29a:	08 95       	ret

0000029c <Compare_pass>:
     29c:	fb 01       	movw	r30, r22
     29e:	9c 01       	movw	r18, r24
     2a0:	2b 5f       	subi	r18, 0xFB	; 251
     2a2:	3f 4f       	sbci	r19, 0xFF	; 255
     2a4:	dc 01       	movw	r26, r24
     2a6:	5d 91       	ld	r21, X+
     2a8:	cd 01       	movw	r24, r26
     2aa:	41 91       	ld	r20, Z+
     2ac:	54 13       	cpse	r21, r20
     2ae:	05 c0       	rjmp	.+10     	; 0x2ba <Compare_pass+0x1e>
     2b0:	a2 17       	cp	r26, r18
     2b2:	b3 07       	cpc	r27, r19
     2b4:	b9 f7       	brne	.-18     	; 0x2a4 <Compare_pass+0x8>
     2b6:	81 e0       	ldi	r24, 0x01	; 1
     2b8:	08 95       	ret
     2ba:	80 e0       	ldi	r24, 0x00	; 0
     2bc:	08 95       	ret

000002be <KEYPAD_Init>:
     2be:	cf 93       	push	r28
     2c0:	cc e0       	ldi	r28, 0x0C	; 12
     2c2:	61 e0       	ldi	r22, 0x01	; 1
     2c4:	8c 2f       	mov	r24, r28
     2c6:	0e 94 11 08 	call	0x1022	; 0x1022 <DIO_WritePin>
     2ca:	cf 5f       	subi	r28, 0xFF	; 255
     2cc:	c0 31       	cpi	r28, 0x10	; 16
     2ce:	c9 f7       	brne	.-14     	; 0x2c2 <KEYPAD_Init+0x4>
     2d0:	cf 91       	pop	r28
     2d2:	08 95       	ret

000002d4 <KEYPAD_GetKey>:
     2d4:	df 92       	push	r13
     2d6:	ef 92       	push	r14
     2d8:	ff 92       	push	r15
     2da:	0f 93       	push	r16
     2dc:	1f 93       	push	r17
     2de:	cf 93       	push	r28
     2e0:	df 93       	push	r29
     2e2:	93 e8       	ldi	r25, 0x83	; 131
     2e4:	e9 2e       	mov	r14, r25
     2e6:	91 e0       	ldi	r25, 0x01	; 1
     2e8:	f9 2e       	mov	r15, r25
     2ea:	cc e0       	ldi	r28, 0x0C	; 12
     2ec:	db e6       	ldi	r29, 0x6B	; 107
     2ee:	60 e0       	ldi	r22, 0x00	; 0
     2f0:	8c 2f       	mov	r24, r28
     2f2:	0e 94 11 08 	call	0x1022	; 0x1022 <DIO_WritePin>
     2f6:	00 e0       	ldi	r16, 0x00	; 0
     2f8:	10 e0       	ldi	r17, 0x00	; 0
     2fa:	82 e1       	ldi	r24, 0x12	; 18
     2fc:	d8 2e       	mov	r13, r24
     2fe:	d0 0e       	add	r13, r16
     300:	8d 2d       	mov	r24, r13
     302:	0e 94 8b 08 	call	0x1116	; 0x1116 <DIO_ReadPin>
     306:	81 11       	cpse	r24, r1
     308:	15 c0       	rjmp	.+42     	; 0x334 <KEYPAD_GetKey+0x60>
     30a:	f7 01       	movw	r30, r14
     30c:	e0 0f       	add	r30, r16
     30e:	f1 1f       	adc	r31, r17
     310:	d0 81       	ld	r29, Z
     312:	8f e1       	ldi	r24, 0x1F	; 31
     314:	9e e4       	ldi	r25, 0x4E	; 78
     316:	01 97       	sbiw	r24, 0x01	; 1
     318:	f1 f7       	brne	.-4      	; 0x316 <KEYPAD_GetKey+0x42>
     31a:	00 c0       	rjmp	.+0      	; 0x31c <KEYPAD_GetKey+0x48>
     31c:	00 00       	nop
     31e:	8d 2d       	mov	r24, r13
     320:	0e 94 8b 08 	call	0x1116	; 0x1116 <DIO_ReadPin>
     324:	88 23       	and	r24, r24
     326:	d9 f3       	breq	.-10     	; 0x31e <KEYPAD_GetKey+0x4a>
     328:	8f e1       	ldi	r24, 0x1F	; 31
     32a:	9e e4       	ldi	r25, 0x4E	; 78
     32c:	01 97       	sbiw	r24, 0x01	; 1
     32e:	f1 f7       	brne	.-4      	; 0x32c <KEYPAD_GetKey+0x58>
     330:	00 c0       	rjmp	.+0      	; 0x332 <KEYPAD_GetKey+0x5e>
     332:	00 00       	nop
     334:	0f 5f       	subi	r16, 0xFF	; 255
     336:	1f 4f       	sbci	r17, 0xFF	; 255
     338:	04 30       	cpi	r16, 0x04	; 4
     33a:	11 05       	cpc	r17, r1
     33c:	f1 f6       	brne	.-68     	; 0x2fa <KEYPAD_GetKey+0x26>
     33e:	61 e0       	ldi	r22, 0x01	; 1
     340:	8c 2f       	mov	r24, r28
     342:	0e 94 11 08 	call	0x1022	; 0x1022 <DIO_WritePin>
     346:	cf 5f       	subi	r28, 0xFF	; 255
     348:	94 e0       	ldi	r25, 0x04	; 4
     34a:	e9 0e       	add	r14, r25
     34c:	f1 1c       	adc	r15, r1
     34e:	c0 31       	cpi	r28, 0x10	; 16
     350:	71 f6       	brne	.-100    	; 0x2ee <KEYPAD_GetKey+0x1a>
     352:	8d 2f       	mov	r24, r29
     354:	df 91       	pop	r29
     356:	cf 91       	pop	r28
     358:	1f 91       	pop	r17
     35a:	0f 91       	pop	r16
     35c:	ff 90       	pop	r15
     35e:	ef 90       	pop	r14
     360:	df 90       	pop	r13
     362:	08 95       	ret

00000364 <WriteIns>:
     364:	cf 93       	push	r28
     366:	c8 2f       	mov	r28, r24
     368:	60 e0       	ldi	r22, 0x00	; 0
     36a:	81 e0       	ldi	r24, 0x01	; 1
     36c:	0e 94 11 08 	call	0x1022	; 0x1022 <DIO_WritePin>
     370:	6c 2f       	mov	r22, r28
     372:	66 1f       	adc	r22, r22
     374:	66 27       	eor	r22, r22
     376:	66 1f       	adc	r22, r22
     378:	86 e0       	ldi	r24, 0x06	; 6
     37a:	0e 94 11 08 	call	0x1022	; 0x1022 <DIO_WritePin>
     37e:	c6 fb       	bst	r28, 6
     380:	66 27       	eor	r22, r22
     382:	60 f9       	bld	r22, 0
     384:	85 e0       	ldi	r24, 0x05	; 5
     386:	0e 94 11 08 	call	0x1022	; 0x1022 <DIO_WritePin>
     38a:	c5 fb       	bst	r28, 5
     38c:	66 27       	eor	r22, r22
     38e:	60 f9       	bld	r22, 0
     390:	84 e0       	ldi	r24, 0x04	; 4
     392:	0e 94 11 08 	call	0x1022	; 0x1022 <DIO_WritePin>
     396:	c4 fb       	bst	r28, 4
     398:	66 27       	eor	r22, r22
     39a:	60 f9       	bld	r22, 0
     39c:	83 e0       	ldi	r24, 0x03	; 3
     39e:	0e 94 11 08 	call	0x1022	; 0x1022 <DIO_WritePin>
     3a2:	61 e0       	ldi	r22, 0x01	; 1
     3a4:	82 e0       	ldi	r24, 0x02	; 2
     3a6:	0e 94 11 08 	call	0x1022	; 0x1022 <DIO_WritePin>
     3aa:	8f ec       	ldi	r24, 0xCF	; 207
     3ac:	97 e0       	ldi	r25, 0x07	; 7
     3ae:	01 97       	sbiw	r24, 0x01	; 1
     3b0:	f1 f7       	brne	.-4      	; 0x3ae <WriteIns+0x4a>
     3b2:	00 c0       	rjmp	.+0      	; 0x3b4 <WriteIns+0x50>
     3b4:	00 00       	nop
     3b6:	60 e0       	ldi	r22, 0x00	; 0
     3b8:	82 e0       	ldi	r24, 0x02	; 2
     3ba:	0e 94 11 08 	call	0x1022	; 0x1022 <DIO_WritePin>
     3be:	8f ec       	ldi	r24, 0xCF	; 207
     3c0:	97 e0       	ldi	r25, 0x07	; 7
     3c2:	01 97       	sbiw	r24, 0x01	; 1
     3c4:	f1 f7       	brne	.-4      	; 0x3c2 <WriteIns+0x5e>
     3c6:	00 c0       	rjmp	.+0      	; 0x3c8 <WriteIns+0x64>
     3c8:	00 00       	nop
     3ca:	c3 fb       	bst	r28, 3
     3cc:	66 27       	eor	r22, r22
     3ce:	60 f9       	bld	r22, 0
     3d0:	86 e0       	ldi	r24, 0x06	; 6
     3d2:	0e 94 11 08 	call	0x1022	; 0x1022 <DIO_WritePin>
     3d6:	c2 fb       	bst	r28, 2
     3d8:	66 27       	eor	r22, r22
     3da:	60 f9       	bld	r22, 0
     3dc:	85 e0       	ldi	r24, 0x05	; 5
     3de:	0e 94 11 08 	call	0x1022	; 0x1022 <DIO_WritePin>
     3e2:	c1 fb       	bst	r28, 1
     3e4:	66 27       	eor	r22, r22
     3e6:	60 f9       	bld	r22, 0
     3e8:	84 e0       	ldi	r24, 0x04	; 4
     3ea:	0e 94 11 08 	call	0x1022	; 0x1022 <DIO_WritePin>
     3ee:	6c 2f       	mov	r22, r28
     3f0:	61 70       	andi	r22, 0x01	; 1
     3f2:	83 e0       	ldi	r24, 0x03	; 3
     3f4:	0e 94 11 08 	call	0x1022	; 0x1022 <DIO_WritePin>
     3f8:	61 e0       	ldi	r22, 0x01	; 1
     3fa:	82 e0       	ldi	r24, 0x02	; 2
     3fc:	0e 94 11 08 	call	0x1022	; 0x1022 <DIO_WritePin>
     400:	8f ec       	ldi	r24, 0xCF	; 207
     402:	97 e0       	ldi	r25, 0x07	; 7
     404:	01 97       	sbiw	r24, 0x01	; 1
     406:	f1 f7       	brne	.-4      	; 0x404 <__EEPROM_REGION_LENGTH__+0x4>
     408:	00 c0       	rjmp	.+0      	; 0x40a <__EEPROM_REGION_LENGTH__+0xa>
     40a:	00 00       	nop
     40c:	60 e0       	ldi	r22, 0x00	; 0
     40e:	82 e0       	ldi	r24, 0x02	; 2
     410:	0e 94 11 08 	call	0x1022	; 0x1022 <DIO_WritePin>
     414:	8f ec       	ldi	r24, 0xCF	; 207
     416:	97 e0       	ldi	r25, 0x07	; 7
     418:	01 97       	sbiw	r24, 0x01	; 1
     41a:	f1 f7       	brne	.-4      	; 0x418 <__EEPROM_REGION_LENGTH__+0x18>
     41c:	00 c0       	rjmp	.+0      	; 0x41e <__EEPROM_REGION_LENGTH__+0x1e>
     41e:	00 00       	nop
     420:	cf 91       	pop	r28
     422:	08 95       	ret

00000424 <WriteData>:
     424:	cf 93       	push	r28
     426:	c8 2f       	mov	r28, r24
     428:	61 e0       	ldi	r22, 0x01	; 1
     42a:	81 e0       	ldi	r24, 0x01	; 1
     42c:	0e 94 11 08 	call	0x1022	; 0x1022 <DIO_WritePin>
     430:	6c 2f       	mov	r22, r28
     432:	66 1f       	adc	r22, r22
     434:	66 27       	eor	r22, r22
     436:	66 1f       	adc	r22, r22
     438:	86 e0       	ldi	r24, 0x06	; 6
     43a:	0e 94 11 08 	call	0x1022	; 0x1022 <DIO_WritePin>
     43e:	c6 fb       	bst	r28, 6
     440:	66 27       	eor	r22, r22
     442:	60 f9       	bld	r22, 0
     444:	85 e0       	ldi	r24, 0x05	; 5
     446:	0e 94 11 08 	call	0x1022	; 0x1022 <DIO_WritePin>
     44a:	c5 fb       	bst	r28, 5
     44c:	66 27       	eor	r22, r22
     44e:	60 f9       	bld	r22, 0
     450:	84 e0       	ldi	r24, 0x04	; 4
     452:	0e 94 11 08 	call	0x1022	; 0x1022 <DIO_WritePin>
     456:	c4 fb       	bst	r28, 4
     458:	66 27       	eor	r22, r22
     45a:	60 f9       	bld	r22, 0
     45c:	83 e0       	ldi	r24, 0x03	; 3
     45e:	0e 94 11 08 	call	0x1022	; 0x1022 <DIO_WritePin>
     462:	61 e0       	ldi	r22, 0x01	; 1
     464:	82 e0       	ldi	r24, 0x02	; 2
     466:	0e 94 11 08 	call	0x1022	; 0x1022 <DIO_WritePin>
     46a:	8f ec       	ldi	r24, 0xCF	; 207
     46c:	97 e0       	ldi	r25, 0x07	; 7
     46e:	01 97       	sbiw	r24, 0x01	; 1
     470:	f1 f7       	brne	.-4      	; 0x46e <WriteData+0x4a>
     472:	00 c0       	rjmp	.+0      	; 0x474 <WriteData+0x50>
     474:	00 00       	nop
     476:	60 e0       	ldi	r22, 0x00	; 0
     478:	82 e0       	ldi	r24, 0x02	; 2
     47a:	0e 94 11 08 	call	0x1022	; 0x1022 <DIO_WritePin>
     47e:	8f ec       	ldi	r24, 0xCF	; 207
     480:	97 e0       	ldi	r25, 0x07	; 7
     482:	01 97       	sbiw	r24, 0x01	; 1
     484:	f1 f7       	brne	.-4      	; 0x482 <WriteData+0x5e>
     486:	00 c0       	rjmp	.+0      	; 0x488 <WriteData+0x64>
     488:	00 00       	nop
     48a:	c3 fb       	bst	r28, 3
     48c:	66 27       	eor	r22, r22
     48e:	60 f9       	bld	r22, 0
     490:	86 e0       	ldi	r24, 0x06	; 6
     492:	0e 94 11 08 	call	0x1022	; 0x1022 <DIO_WritePin>
     496:	c2 fb       	bst	r28, 2
     498:	66 27       	eor	r22, r22
     49a:	60 f9       	bld	r22, 0
     49c:	85 e0       	ldi	r24, 0x05	; 5
     49e:	0e 94 11 08 	call	0x1022	; 0x1022 <DIO_WritePin>
     4a2:	c1 fb       	bst	r28, 1
     4a4:	66 27       	eor	r22, r22
     4a6:	60 f9       	bld	r22, 0
     4a8:	84 e0       	ldi	r24, 0x04	; 4
     4aa:	0e 94 11 08 	call	0x1022	; 0x1022 <DIO_WritePin>
     4ae:	6c 2f       	mov	r22, r28
     4b0:	61 70       	andi	r22, 0x01	; 1
     4b2:	83 e0       	ldi	r24, 0x03	; 3
     4b4:	0e 94 11 08 	call	0x1022	; 0x1022 <DIO_WritePin>
     4b8:	61 e0       	ldi	r22, 0x01	; 1
     4ba:	82 e0       	ldi	r24, 0x02	; 2
     4bc:	0e 94 11 08 	call	0x1022	; 0x1022 <DIO_WritePin>
     4c0:	8f ec       	ldi	r24, 0xCF	; 207
     4c2:	97 e0       	ldi	r25, 0x07	; 7
     4c4:	01 97       	sbiw	r24, 0x01	; 1
     4c6:	f1 f7       	brne	.-4      	; 0x4c4 <WriteData+0xa0>
     4c8:	00 c0       	rjmp	.+0      	; 0x4ca <WriteData+0xa6>
     4ca:	00 00       	nop
     4cc:	60 e0       	ldi	r22, 0x00	; 0
     4ce:	82 e0       	ldi	r24, 0x02	; 2
     4d0:	0e 94 11 08 	call	0x1022	; 0x1022 <DIO_WritePin>
     4d4:	8f ec       	ldi	r24, 0xCF	; 207
     4d6:	97 e0       	ldi	r25, 0x07	; 7
     4d8:	01 97       	sbiw	r24, 0x01	; 1
     4da:	f1 f7       	brne	.-4      	; 0x4d8 <WriteData+0xb4>
     4dc:	00 c0       	rjmp	.+0      	; 0x4de <WriteData+0xba>
     4de:	00 00       	nop
     4e0:	cf 91       	pop	r28
     4e2:	08 95       	ret

000004e4 <LCD_Init>:
     4e4:	2f e7       	ldi	r18, 0x7F	; 127
     4e6:	88 e3       	ldi	r24, 0x38	; 56
     4e8:	91 e0       	ldi	r25, 0x01	; 1
     4ea:	21 50       	subi	r18, 0x01	; 1
     4ec:	80 40       	sbci	r24, 0x00	; 0
     4ee:	90 40       	sbci	r25, 0x00	; 0
     4f0:	e1 f7       	brne	.-8      	; 0x4ea <LCD_Init+0x6>
     4f2:	00 c0       	rjmp	.+0      	; 0x4f4 <LCD_Init+0x10>
     4f4:	00 00       	nop
     4f6:	82 e0       	ldi	r24, 0x02	; 2
     4f8:	0e 94 b2 01 	call	0x364	; 0x364 <WriteIns>
     4fc:	88 e2       	ldi	r24, 0x28	; 40
     4fe:	0e 94 b2 01 	call	0x364	; 0x364 <WriteIns>
     502:	8c e0       	ldi	r24, 0x0C	; 12
     504:	0e 94 b2 01 	call	0x364	; 0x364 <WriteIns>
     508:	81 e0       	ldi	r24, 0x01	; 1
     50a:	0e 94 b2 01 	call	0x364	; 0x364 <WriteIns>
     50e:	8f ec       	ldi	r24, 0xCF	; 207
     510:	97 e0       	ldi	r25, 0x07	; 7
     512:	01 97       	sbiw	r24, 0x01	; 1
     514:	f1 f7       	brne	.-4      	; 0x512 <LCD_Init+0x2e>
     516:	00 c0       	rjmp	.+0      	; 0x518 <LCD_Init+0x34>
     518:	00 00       	nop
     51a:	86 e0       	ldi	r24, 0x06	; 6
     51c:	0c 94 b2 01 	jmp	0x364	; 0x364 <WriteIns>

00000520 <LCD_WriteString>:
     520:	0f 93       	push	r16
     522:	1f 93       	push	r17
     524:	cf 93       	push	r28
     526:	8c 01       	movw	r16, r24
     528:	c0 e0       	ldi	r28, 0x00	; 0
     52a:	f8 01       	movw	r30, r16
     52c:	ec 0f       	add	r30, r28
     52e:	f1 1d       	adc	r31, r1
     530:	80 81       	ld	r24, Z
     532:	88 23       	and	r24, r24
     534:	21 f0       	breq	.+8      	; 0x53e <LCD_WriteString+0x1e>
     536:	0e 94 12 02 	call	0x424	; 0x424 <WriteData>
     53a:	cf 5f       	subi	r28, 0xFF	; 255
     53c:	f6 cf       	rjmp	.-20     	; 0x52a <LCD_WriteString+0xa>
     53e:	cf 91       	pop	r28
     540:	1f 91       	pop	r17
     542:	0f 91       	pop	r16
     544:	08 95       	ret

00000546 <LCD_WriteChar>:
     546:	0c 94 12 02 	jmp	0x424	; 0x424 <WriteData>

0000054a <LCD_WriteNumber>:
     54a:	8f 92       	push	r8
     54c:	9f 92       	push	r9
     54e:	af 92       	push	r10
     550:	bf 92       	push	r11
     552:	ef 92       	push	r14
     554:	ff 92       	push	r15
     556:	1f 93       	push	r17
     558:	cf 93       	push	r28
     55a:	df 93       	push	r29
     55c:	cd b7       	in	r28, 0x3d	; 61
     55e:	de b7       	in	r29, 0x3e	; 62
     560:	2a 97       	sbiw	r28, 0x0a	; 10
     562:	0f b6       	in	r0, 0x3f	; 63
     564:	f8 94       	cli
     566:	de bf       	out	0x3e, r29	; 62
     568:	0f be       	out	0x3f, r0	; 63
     56a:	cd bf       	out	0x3d, r28	; 61
     56c:	4b 01       	movw	r8, r22
     56e:	5c 01       	movw	r10, r24
     570:	ce 01       	movw	r24, r28
     572:	01 96       	adiw	r24, 0x01	; 1
     574:	7c 01       	movw	r14, r24
     576:	8a e0       	ldi	r24, 0x0A	; 10
     578:	f7 01       	movw	r30, r14
     57a:	11 92       	st	Z+, r1
     57c:	8a 95       	dec	r24
     57e:	e9 f7       	brne	.-6      	; 0x57a <LCD_WriteNumber+0x30>
     580:	81 14       	cp	r8, r1
     582:	91 04       	cpc	r9, r1
     584:	a1 04       	cpc	r10, r1
     586:	b1 04       	cpc	r11, r1
     588:	19 f4       	brne	.+6      	; 0x590 <LCD_WriteNumber+0x46>
     58a:	80 e3       	ldi	r24, 0x30	; 48
     58c:	0e 94 12 02 	call	0x424	; 0x424 <WriteData>
     590:	b5 01       	movw	r22, r10
     592:	a4 01       	movw	r20, r8
     594:	c7 01       	movw	r24, r14
     596:	0e 94 f2 0c 	call	0x19e4	; 0x19e4 <NUM_tostring>
     59a:	10 e0       	ldi	r17, 0x00	; 0
     59c:	f7 01       	movw	r30, r14
     59e:	e1 0f       	add	r30, r17
     5a0:	f1 1d       	adc	r31, r1
     5a2:	80 81       	ld	r24, Z
     5a4:	18 17       	cp	r17, r24
     5a6:	20 f4       	brcc	.+8      	; 0x5b0 <LCD_WriteNumber+0x66>
     5a8:	0e 94 12 02 	call	0x424	; 0x424 <WriteData>
     5ac:	1f 5f       	subi	r17, 0xFF	; 255
     5ae:	f6 cf       	rjmp	.-20     	; 0x59c <LCD_WriteNumber+0x52>
     5b0:	2a 96       	adiw	r28, 0x0a	; 10
     5b2:	0f b6       	in	r0, 0x3f	; 63
     5b4:	f8 94       	cli
     5b6:	de bf       	out	0x3e, r29	; 62
     5b8:	0f be       	out	0x3f, r0	; 63
     5ba:	cd bf       	out	0x3d, r28	; 61
     5bc:	df 91       	pop	r29
     5be:	cf 91       	pop	r28
     5c0:	1f 91       	pop	r17
     5c2:	ff 90       	pop	r15
     5c4:	ef 90       	pop	r14
     5c6:	bf 90       	pop	r11
     5c8:	af 90       	pop	r10
     5ca:	9f 90       	pop	r9
     5cc:	8f 90       	pop	r8
     5ce:	08 95       	ret

000005d0 <LCD_SetCursor>:
     5d0:	81 11       	cpse	r24, r1
     5d2:	02 c0       	rjmp	.+4      	; 0x5d8 <LCD_SetCursor+0x8>
     5d4:	86 2f       	mov	r24, r22
     5d6:	04 c0       	rjmp	.+8      	; 0x5e0 <LCD_SetCursor+0x10>
     5d8:	81 30       	cpi	r24, 0x01	; 1
     5da:	29 f4       	brne	.+10     	; 0x5e6 <LCD_SetCursor+0x16>
     5dc:	80 e4       	ldi	r24, 0x40	; 64
     5de:	86 0f       	add	r24, r22
     5e0:	80 68       	ori	r24, 0x80	; 128
     5e2:	0c 94 b2 01 	jmp	0x364	; 0x364 <WriteIns>
     5e6:	08 95       	ret

000005e8 <LCD_Clear>:
     5e8:	81 e0       	ldi	r24, 0x01	; 1
     5ea:	0e 94 b2 01 	call	0x364	; 0x364 <WriteIns>
     5ee:	8f ec       	ldi	r24, 0xCF	; 207
     5f0:	97 e0       	ldi	r25, 0x07	; 7
     5f2:	01 97       	sbiw	r24, 0x01	; 1
     5f4:	f1 f7       	brne	.-4      	; 0x5f2 <LCD_Clear+0xa>
     5f6:	00 c0       	rjmp	.+0      	; 0x5f8 <LCD_Clear+0x10>
     5f8:	00 00       	nop
     5fa:	08 95       	ret

000005fc <Led_On>:
     5fc:	61 e0       	ldi	r22, 0x01	; 1
     5fe:	0c 94 11 08 	jmp	0x1022	; 0x1022 <DIO_WritePin>

00000602 <Led_Off>:
     602:	60 e0       	ldi	r22, 0x00	; 0
     604:	0c 94 11 08 	jmp	0x1022	; 0x1022 <DIO_WritePin>

00000608 <MOTOR_Stop>:
     608:	0f 93       	push	r16
     60a:	1f 93       	push	r17
     60c:	cf 93       	push	r28
     60e:	df 93       	push	r29
     610:	d8 2f       	mov	r29, r24
     612:	03 e9       	ldi	r16, 0x93	; 147
     614:	11 e0       	ldi	r17, 0x01	; 1
     616:	c0 e0       	ldi	r28, 0x00	; 0
     618:	dc 13       	cpse	r29, r28
     61a:	0a c0       	rjmp	.+20     	; 0x630 <MOTOR_Stop+0x28>
     61c:	60 e0       	ldi	r22, 0x00	; 0
     61e:	f8 01       	movw	r30, r16
     620:	80 81       	ld	r24, Z
     622:	0e 94 11 08 	call	0x1022	; 0x1022 <DIO_WritePin>
     626:	60 e0       	ldi	r22, 0x00	; 0
     628:	f8 01       	movw	r30, r16
     62a:	81 81       	ldd	r24, Z+1	; 0x01
     62c:	0e 94 11 08 	call	0x1022	; 0x1022 <DIO_WritePin>
     630:	cf 5f       	subi	r28, 0xFF	; 255
     632:	0e 5f       	subi	r16, 0xFE	; 254
     634:	1f 4f       	sbci	r17, 0xFF	; 255
     636:	c4 30       	cpi	r28, 0x04	; 4
     638:	79 f7       	brne	.-34     	; 0x618 <MOTOR_Stop+0x10>
     63a:	df 91       	pop	r29
     63c:	cf 91       	pop	r28
     63e:	1f 91       	pop	r17
     640:	0f 91       	pop	r16
     642:	08 95       	ret

00000644 <MOTOR_CW>:
     644:	0f 93       	push	r16
     646:	1f 93       	push	r17
     648:	cf 93       	push	r28
     64a:	df 93       	push	r29
     64c:	d8 2f       	mov	r29, r24
     64e:	03 e9       	ldi	r16, 0x93	; 147
     650:	11 e0       	ldi	r17, 0x01	; 1
     652:	c0 e0       	ldi	r28, 0x00	; 0
     654:	dc 13       	cpse	r29, r28
     656:	0a c0       	rjmp	.+20     	; 0x66c <MOTOR_CW+0x28>
     658:	61 e0       	ldi	r22, 0x01	; 1
     65a:	f8 01       	movw	r30, r16
     65c:	80 81       	ld	r24, Z
     65e:	0e 94 11 08 	call	0x1022	; 0x1022 <DIO_WritePin>
     662:	60 e0       	ldi	r22, 0x00	; 0
     664:	f8 01       	movw	r30, r16
     666:	81 81       	ldd	r24, Z+1	; 0x01
     668:	0e 94 11 08 	call	0x1022	; 0x1022 <DIO_WritePin>
     66c:	cf 5f       	subi	r28, 0xFF	; 255
     66e:	0e 5f       	subi	r16, 0xFE	; 254
     670:	1f 4f       	sbci	r17, 0xFF	; 255
     672:	c4 30       	cpi	r28, 0x04	; 4
     674:	79 f7       	brne	.-34     	; 0x654 <MOTOR_CW+0x10>
     676:	df 91       	pop	r29
     678:	cf 91       	pop	r28
     67a:	1f 91       	pop	r17
     67c:	0f 91       	pop	r16
     67e:	08 95       	ret

00000680 <SENSOR_ReadTemp>:
     680:	80 e0       	ldi	r24, 0x00	; 0
     682:	0c 94 13 07 	jmp	0xe26	; 0xe26 <ADC_ReadVolt1>

00000686 <SENSOR_ReadGas>:
     686:	87 e0       	ldi	r24, 0x07	; 7
     688:	0c 94 13 07 	jmp	0xe26	; 0xe26 <ADC_ReadVolt1>

0000068c <Servo_Init>:
     68c:	62 e0       	ldi	r22, 0x02	; 2
     68e:	85 e0       	ldi	r24, 0x05	; 5
     690:	0e 94 41 0a 	call	0x1482	; 0x1482 <Timer1_Init>
     694:	82 e0       	ldi	r24, 0x02	; 2
     696:	0e 94 9c 0a 	call	0x1538	; 0x1538 <Timer1_OCRB1Mode>
     69a:	82 e0       	ldi	r24, 0x02	; 2
     69c:	0e 94 81 0a 	call	0x1502	; 0x1502 <Timer1_OCRA1Mode>
     6a0:	8f e1       	ldi	r24, 0x1F	; 31
     6a2:	9e e4       	ldi	r25, 0x4E	; 78
     6a4:	97 bd       	out	0x27, r25	; 39
     6a6:	86 bd       	out	0x26, r24	; 38
     6a8:	08 95       	ret

000006aa <Servo1_SetAngle>:
     6aa:	28 2f       	mov	r18, r24
     6ac:	30 e0       	ldi	r19, 0x00	; 0
     6ae:	a8 ee       	ldi	r26, 0xE8	; 232
     6b0:	b3 e0       	ldi	r27, 0x03	; 3
     6b2:	0e 94 a6 0d 	call	0x1b4c	; 0x1b4c <__umulhisi3>
     6b6:	24 eb       	ldi	r18, 0xB4	; 180
     6b8:	30 e0       	ldi	r19, 0x00	; 0
     6ba:	40 e0       	ldi	r20, 0x00	; 0
     6bc:	50 e0       	ldi	r21, 0x00	; 0
     6be:	0e 94 5f 0d 	call	0x1abe	; 0x1abe <__udivmodsi4>
     6c2:	3b bd       	out	0x2b, r19	; 43
     6c4:	2a bd       	out	0x2a, r18	; 42
     6c6:	8a b5       	in	r24, 0x2a	; 42
     6c8:	9b b5       	in	r25, 0x2b	; 43
     6ca:	89 51       	subi	r24, 0x19	; 25
     6cc:	9c 4f       	sbci	r25, 0xFC	; 252
     6ce:	9b bd       	out	0x2b, r25	; 43
     6d0:	8a bd       	out	0x2a, r24	; 42
     6d2:	08 95       	ret

000006d4 <Servo2_SetAngle>:
     6d4:	28 2f       	mov	r18, r24
     6d6:	30 e0       	ldi	r19, 0x00	; 0
     6d8:	a8 ee       	ldi	r26, 0xE8	; 232
     6da:	b3 e0       	ldi	r27, 0x03	; 3
     6dc:	0e 94 a6 0d 	call	0x1b4c	; 0x1b4c <__umulhisi3>
     6e0:	24 eb       	ldi	r18, 0xB4	; 180
     6e2:	30 e0       	ldi	r19, 0x00	; 0
     6e4:	40 e0       	ldi	r20, 0x00	; 0
     6e6:	50 e0       	ldi	r21, 0x00	; 0
     6e8:	0e 94 5f 0d 	call	0x1abe	; 0x1abe <__udivmodsi4>
     6ec:	39 bd       	out	0x29, r19	; 41
     6ee:	28 bd       	out	0x28, r18	; 40
     6f0:	88 b5       	in	r24, 0x28	; 40
     6f2:	99 b5       	in	r25, 0x29	; 41
     6f4:	89 51       	subi	r24, 0x19	; 25
     6f6:	9c 4f       	sbci	r25, 0xFC	; 252
     6f8:	99 bd       	out	0x29, r25	; 41
     6fa:	88 bd       	out	0x28, r24	; 40
     6fc:	08 95       	ret

000006fe <main>:
     6fe:	cf 93       	push	r28
     700:	df 93       	push	r29
     702:	cd b7       	in	r28, 0x3d	; 61
     704:	de b7       	in	r29, 0x3e	; 62
     706:	e8 97       	sbiw	r28, 0x38	; 56
     708:	0f b6       	in	r0, 0x3f	; 63
     70a:	f8 94       	cli
     70c:	de bf       	out	0x3e, r29	; 62
     70e:	0f be       	out	0x3f, r0	; 63
     710:	cd bf       	out	0x3d, r28	; 61
     712:	0e 94 c2 08 	call	0x1184	; 0x1184 <DIO_Init>
     716:	0e 94 ef 06 	call	0xdde	; 0xdde <ADC_Init>
     71a:	0e 94 5b 0b 	call	0x16b6	; 0x16b6 <UART_Init>
     71e:	0e 94 5f 01 	call	0x2be	; 0x2be <KEYPAD_Init>
     722:	0e 94 72 02 	call	0x4e4	; 0x4e4 <LCD_Init>
     726:	0e 94 46 03 	call	0x68c	; 0x68c <Servo_Init>
     72a:	62 e0       	ldi	r22, 0x02	; 2
     72c:	83 e0       	ldi	r24, 0x03	; 3
     72e:	0e 94 b4 09 	call	0x1368	; 0x1368 <TIMER0_Init>
     732:	82 e0       	ldi	r24, 0x02	; 2
     734:	0e 94 d4 09 	call	0x13a8	; 0x13a8 <TIMER0_OC0Mode>
     738:	0e 94 54 0c 	call	0x18a8	; 0x18a8 <UART_Service_Init>
     73c:	78 94       	sei
     73e:	9e 01       	movw	r18, r28
     740:	2f 5f       	subi	r18, 0xFF	; 255
     742:	3f 4f       	sbci	r19, 0xFF	; 255
     744:	79 01       	movw	r14, r18
     746:	88 e2       	ldi	r24, 0x28	; 40
     748:	f9 01       	movw	r30, r18
     74a:	11 92       	st	Z+, r1
     74c:	8a 95       	dec	r24
     74e:	e9 f7       	brne	.-6      	; 0x74a <main+0x4c>
     750:	85 e0       	ldi	r24, 0x05	; 5
     752:	90 e0       	ldi	r25, 0x00	; 0
     754:	0e 94 df 08 	call	0x11be	; 0x11be <EEPROM_Read>
     758:	9e 01       	movw	r18, r28
     75a:	22 5d       	subi	r18, 0xD2	; 210
     75c:	3f 4f       	sbci	r19, 0xFF	; 255
     75e:	69 01       	movw	r12, r18
     760:	59 01       	movw	r10, r18
     762:	00 e0       	ldi	r16, 0x00	; 0
     764:	10 e0       	ldi	r17, 0x00	; 0
     766:	88 23       	and	r24, r24
     768:	41 f1       	breq	.+80     	; 0x7ba <main+0xbc>
     76a:	f5 01       	movw	r30, r10
     76c:	11 92       	st	Z+, r1
     76e:	5f 01       	movw	r10, r30
     770:	b8 01       	movw	r22, r16
     772:	80 e0       	ldi	r24, 0x00	; 0
     774:	0e 94 d5 08 	call	0x11aa	; 0x11aa <EEPROM_Write>
     778:	0f 5f       	subi	r16, 0xFF	; 255
     77a:	1f 4f       	sbci	r17, 0xFF	; 255
     77c:	05 30       	cpi	r16, 0x05	; 5
     77e:	11 05       	cpc	r17, r1
     780:	a1 f7       	brne	.-24     	; 0x76a <main+0x6c>
     782:	65 e0       	ldi	r22, 0x05	; 5
     784:	70 e0       	ldi	r23, 0x00	; 0
     786:	80 e0       	ldi	r24, 0x00	; 0
     788:	0e 94 d5 08 	call	0x11aa	; 0x11aa <EEPROM_Write>
     78c:	66 e0       	ldi	r22, 0x06	; 6
     78e:	70 e0       	ldi	r23, 0x00	; 0
     790:	80 e0       	ldi	r24, 0x00	; 0
     792:	0e 94 d5 08 	call	0x11aa	; 0x11aa <EEPROM_Write>
     796:	1f aa       	std	Y+55, r1	; 0x37
     798:	00 e0       	ldi	r16, 0x00	; 0
     79a:	10 e0       	ldi	r17, 0x00	; 0
     79c:	f1 e0       	ldi	r31, 0x01	; 1
     79e:	f8 af       	std	Y+56, r31	; 0x38
     7a0:	51 2c       	mov	r5, r1
     7a2:	a1 2c       	mov	r10, r1
     7a4:	b1 2c       	mov	r11, r1
     7a6:	25 e0       	ldi	r18, 0x05	; 5
     7a8:	22 2e       	mov	r2, r18
     7aa:	31 2c       	mov	r3, r1
     7ac:	1e aa       	std	Y+54, r1	; 0x36
     7ae:	9e 01       	movw	r18, r28
     7b0:	2d 5c       	subi	r18, 0xCD	; 205
     7b2:	3f 4f       	sbci	r19, 0xFF	; 255
     7b4:	3d ab       	std	Y+53, r19	; 0x35
     7b6:	2c ab       	std	Y+52, r18	; 0x34
     7b8:	13 c0       	rjmp	.+38     	; 0x7e0 <main+0xe2>
     7ba:	c8 01       	movw	r24, r16
     7bc:	0e 94 df 08 	call	0x11be	; 0x11be <EEPROM_Read>
     7c0:	f5 01       	movw	r30, r10
     7c2:	81 93       	st	Z+, r24
     7c4:	5f 01       	movw	r10, r30
     7c6:	0f 5f       	subi	r16, 0xFF	; 255
     7c8:	1f 4f       	sbci	r17, 0xFF	; 255
     7ca:	05 30       	cpi	r16, 0x05	; 5
     7cc:	11 05       	cpc	r17, r1
     7ce:	a9 f7       	brne	.-22     	; 0x7ba <main+0xbc>
     7d0:	86 e0       	ldi	r24, 0x06	; 6
     7d2:	90 e0       	ldi	r25, 0x00	; 0
     7d4:	0e 94 df 08 	call	0x11be	; 0x11be <EEPROM_Read>
     7d8:	8f ab       	std	Y+55, r24	; 0x37
     7da:	de cf       	rjmp	.-68     	; 0x798 <main+0x9a>
     7dc:	55 24       	eor	r5, r5
     7de:	53 94       	inc	r5
     7e0:	87 e0       	ldi	r24, 0x07	; 7
     7e2:	0e 94 c5 0b 	call	0x178a	; 0x178a <WDT_Reset>
     7e6:	ef a9       	ldd	r30, Y+55	; 0x37
     7e8:	e1 30       	cpi	r30, 0x01	; 1
     7ea:	61 f5       	brne	.+88     	; 0x844 <__DATA_REGION_LENGTH__+0x44>
     7ec:	60 e0       	ldi	r22, 0x00	; 0
     7ee:	80 e0       	ldi	r24, 0x00	; 0
     7f0:	0e 94 e8 02 	call	0x5d0	; 0x5d0 <LCD_SetCursor>
     7f4:	8b e9       	ldi	r24, 0x9B	; 155
     7f6:	91 e0       	ldi	r25, 0x01	; 1
     7f8:	0e 94 90 02 	call	0x520	; 0x520 <LCD_WriteString>
     7fc:	ff ef       	ldi	r31, 0xFF	; 255
     7fe:	27 e8       	ldi	r18, 0x87	; 135
     800:	33 e1       	ldi	r19, 0x13	; 19
     802:	f1 50       	subi	r31, 0x01	; 1
     804:	20 40       	sbci	r18, 0x00	; 0
     806:	30 40       	sbci	r19, 0x00	; 0
     808:	e1 f7       	brne	.-8      	; 0x802 <__DATA_REGION_LENGTH__+0x2>
     80a:	00 c0       	rjmp	.+0      	; 0x80c <__DATA_REGION_LENGTH__+0xc>
     80c:	00 00       	nop
     80e:	36 01       	movw	r6, r12
     810:	41 01       	movw	r8, r2
     812:	8c 18       	sub	r8, r12
     814:	9d 08       	sbc	r9, r13
     816:	b4 01       	movw	r22, r8
     818:	66 0d       	add	r22, r6
     81a:	77 1d       	adc	r23, r7
     81c:	f3 01       	movw	r30, r6
     81e:	11 92       	st	Z+, r1
     820:	3f 01       	movw	r6, r30
     822:	80 e0       	ldi	r24, 0x00	; 0
     824:	0e 94 d5 08 	call	0x11aa	; 0x11aa <EEPROM_Write>
     828:	2c a9       	ldd	r18, Y+52	; 0x34
     82a:	3d a9       	ldd	r19, Y+53	; 0x35
     82c:	26 15       	cp	r18, r6
     82e:	37 05       	cpc	r19, r7
     830:	91 f7       	brne	.-28     	; 0x816 <__DATA_REGION_LENGTH__+0x16>
     832:	35 e0       	ldi	r19, 0x05	; 5
     834:	23 0e       	add	r2, r19
     836:	31 1c       	adc	r3, r1
     838:	66 e0       	ldi	r22, 0x06	; 6
     83a:	70 e0       	ldi	r23, 0x00	; 0
     83c:	80 e0       	ldi	r24, 0x00	; 0
     83e:	0e 94 d5 08 	call	0x11aa	; 0x11aa <EEPROM_Write>
     842:	1f aa       	std	Y+55, r1	; 0x37
     844:	0e 94 6a 01 	call	0x2d4	; 0x2d4 <KEYPAD_GetKey>
     848:	98 2e       	mov	r9, r24
     84a:	0e 94 50 00 	call	0xa0	; 0xa0 <Filter_Runnable>
     84e:	c7 01       	movw	r24, r14
     850:	0e 94 9d 0c 	call	0x193a	; 0x193a <UART_ReceiveStringAsynch>
     854:	51 10       	cpse	r5, r1
     856:	1a c0       	rjmp	.+52     	; 0x88c <__stack+0x2d>
     858:	0e 94 f4 02 	call	0x5e8	; 0x5e8 <LCD_Clear>
     85c:	60 e0       	ldi	r22, 0x00	; 0
     85e:	80 e0       	ldi	r24, 0x00	; 0
     860:	0e 94 e8 02 	call	0x5d0	; 0x5d0 <LCD_SetCursor>
     864:	86 eb       	ldi	r24, 0xB6	; 182
     866:	91 e0       	ldi	r25, 0x01	; 1
     868:	0e 94 90 02 	call	0x520	; 0x520 <LCD_WriteString>
     86c:	60 e0       	ldi	r22, 0x00	; 0
     86e:	81 e0       	ldi	r24, 0x01	; 1
     870:	0e 94 e8 02 	call	0x5d0	; 0x5d0 <LCD_SetCursor>
     874:	83 ec       	ldi	r24, 0xC3	; 195
     876:	91 e0       	ldi	r25, 0x01	; 1
     878:	0e 94 90 02 	call	0x520	; 0x520 <LCD_WriteString>
     87c:	66 e0       	ldi	r22, 0x06	; 6
     87e:	81 e0       	ldi	r24, 0x01	; 1
     880:	0e 94 e8 02 	call	0x5d0	; 0x5d0 <LCD_SetCursor>
     884:	86 ec       	ldi	r24, 0xC6	; 198
     886:	91 e0       	ldi	r25, 0x01	; 1
     888:	0e 94 90 02 	call	0x520	; 0x520 <LCD_WriteString>
     88c:	80 91 13 05 	lds	r24, 0x0513	; 0x800513 <AIR_OFF_Flag>
     890:	81 11       	cpse	r24, r1
     892:	04 c0       	rjmp	.+8      	; 0x89c <__stack+0x3d>
     894:	80 2f       	mov	r24, r16
     896:	0e 94 e1 00 	call	0x1c2	; 0x1c2 <Air_ConditionerOn>
     89a:	07 c0       	rjmp	.+14     	; 0x8aa <__stack+0x4b>
     89c:	80 91 13 05 	lds	r24, 0x0513	; 0x800513 <AIR_OFF_Flag>
     8a0:	81 30       	cpi	r24, 0x01	; 1
     8a2:	19 f4       	brne	.+6      	; 0x8aa <__stack+0x4b>
     8a4:	83 e0       	ldi	r24, 0x03	; 3
     8a6:	0e 94 04 03 	call	0x608	; 0x608 <MOTOR_Stop>
     8aa:	0e 94 9d 00 	call	0x13a	; 0x13a <Filter_GetFilteredValue>
     8ae:	6a e0       	ldi	r22, 0x0A	; 10
     8b0:	70 e0       	ldi	r23, 0x00	; 0
     8b2:	0e 94 4b 0d 	call	0x1a96	; 0x1a96 <__udivmodhi4>
     8b6:	8b 01       	movw	r16, r22
     8b8:	62 e0       	ldi	r22, 0x02	; 2
     8ba:	81 e0       	ldi	r24, 0x01	; 1
     8bc:	0e 94 e8 02 	call	0x5d0	; 0x5d0 <LCD_SetCursor>
     8c0:	b8 01       	movw	r22, r16
     8c2:	80 e0       	ldi	r24, 0x00	; 0
     8c4:	90 e0       	ldi	r25, 0x00	; 0
     8c6:	0e 94 a5 02 	call	0x54a	; 0x54a <LCD_WriteNumber>
     8ca:	8e e1       	ldi	r24, 0x1E	; 30
     8cc:	92 e0       	ldi	r25, 0x02	; 2
     8ce:	0e 94 90 02 	call	0x520	; 0x520 <LCD_WriteString>
     8d2:	02 33       	cpi	r16, 0x32	; 50
     8d4:	11 05       	cpc	r17, r1
     8d6:	20 f0       	brcs	.+8      	; 0x8e0 <__stack+0x81>
     8d8:	0e 94 f4 02 	call	0x5e8	; 0x5e8 <LCD_Clear>
     8dc:	91 2c       	mov	r9, r1
     8de:	f9 c0       	rjmp	.+498    	; 0xad2 <__stack+0x273>
     8e0:	80 91 14 05 	lds	r24, 0x0514	; 0x800514 <Finish_Flag>
     8e4:	81 30       	cpi	r24, 0x01	; 1
     8e6:	61 f4       	brne	.+24     	; 0x900 <__stack+0xa1>
     8e8:	be 01       	movw	r22, r28
     8ea:	6d 5c       	subi	r22, 0xCD	; 205
     8ec:	7f 4f       	sbci	r23, 0xFF	; 255
     8ee:	c7 01       	movw	r24, r14
     8f0:	0e 94 fe 00 	call	0x1fc	; 0x1fc <UART_ReceiveTaskAndData>
     8f4:	6b a9       	ldd	r22, Y+51	; 0x33
     8f6:	c7 01       	movw	r24, r14
     8f8:	0e 94 1d 01 	call	0x23a	; 0x23a <UART_Find_Task>
     8fc:	10 92 14 05 	sts	0x0514, r1	; 0x800514 <Finish_Flag>
     900:	83 e6       	ldi	r24, 0x63	; 99
     902:	98 12       	cpse	r9, r24
     904:	6b cf       	rjmp	.-298    	; 0x7dc <main+0xde>
     906:	0e 94 f4 02 	call	0x5e8	; 0x5e8 <LCD_Clear>
     90a:	60 e0       	ldi	r22, 0x00	; 0
     90c:	80 e0       	ldi	r24, 0x00	; 0
     90e:	0e 94 e8 02 	call	0x5d0	; 0x5d0 <LCD_SetCursor>
     912:	88 ec       	ldi	r24, 0xC8	; 200
     914:	91 e0       	ldi	r25, 0x01	; 1
     916:	0e 94 90 02 	call	0x520	; 0x520 <LCD_WriteString>
     91a:	71 2c       	mov	r7, r1
     91c:	87 e0       	ldi	r24, 0x07	; 7
     91e:	0e 94 c5 0b 	call	0x178a	; 0x178a <WDT_Reset>
     922:	0e 94 6a 01 	call	0x2d4	; 0x2d4 <KEYPAD_GetKey>
     926:	80 53       	subi	r24, 0x30	; 48
     928:	8a 30       	cpi	r24, 0x0A	; 10
     92a:	c0 f7       	brcc	.-16     	; 0x91c <__stack+0xbd>
     92c:	9e a9       	ldd	r25, Y+54	; 0x36
     92e:	91 11       	cpse	r25, r1
     930:	6d c0       	rjmp	.+218    	; 0xa0c <__stack+0x1ad>
     932:	99 e2       	ldi	r25, 0x29	; 41
     934:	89 2e       	mov	r8, r25
     936:	91 2c       	mov	r9, r1
     938:	8c 0e       	add	r8, r28
     93a:	9d 1e       	adc	r9, r29
     93c:	87 0c       	add	r8, r7
     93e:	91 1c       	adc	r9, r1
     940:	f4 01       	movw	r30, r8
     942:	80 83       	st	Z, r24
     944:	67 2d       	mov	r22, r7
     946:	81 e0       	ldi	r24, 0x01	; 1
     948:	0e 94 e8 02 	call	0x5d0	; 0x5d0 <LCD_SetCursor>
     94c:	f4 01       	movw	r30, r8
     94e:	60 81       	ld	r22, Z
     950:	70 e0       	ldi	r23, 0x00	; 0
     952:	80 e0       	ldi	r24, 0x00	; 0
     954:	90 e0       	ldi	r25, 0x00	; 0
     956:	0e 94 a5 02 	call	0x54a	; 0x54a <LCD_WriteNumber>
     95a:	8f e3       	ldi	r24, 0x3F	; 63
     95c:	9c e9       	ldi	r25, 0x9C	; 156
     95e:	01 97       	sbiw	r24, 0x01	; 1
     960:	f1 f7       	brne	.-4      	; 0x95e <__stack+0xff>
     962:	00 c0       	rjmp	.+0      	; 0x964 <__stack+0x105>
     964:	00 00       	nop
     966:	67 2d       	mov	r22, r7
     968:	81 e0       	ldi	r24, 0x01	; 1
     96a:	0e 94 e8 02 	call	0x5d0	; 0x5d0 <LCD_SetCursor>
     96e:	8a e2       	ldi	r24, 0x2A	; 42
     970:	0e 94 a3 02 	call	0x546	; 0x546 <LCD_WriteChar>
     974:	73 94       	inc	r7
     976:	95 e0       	ldi	r25, 0x05	; 5
     978:	79 12       	cpse	r7, r25
     97a:	d0 cf       	rjmp	.-96     	; 0x91c <__stack+0xbd>
     97c:	b6 01       	movw	r22, r12
     97e:	ce 01       	movw	r24, r28
     980:	89 96       	adiw	r24, 0x29	; 41
     982:	0e 94 4e 01 	call	0x29c	; 0x29c <Compare_pass>
     986:	81 30       	cpi	r24, 0x01	; 1
     988:	a9 f4       	brne	.+42     	; 0x9b4 <__stack+0x155>
     98a:	0e 94 f4 02 	call	0x5e8	; 0x5e8 <LCD_Clear>
     98e:	60 e0       	ldi	r22, 0x00	; 0
     990:	80 e0       	ldi	r24, 0x00	; 0
     992:	0e 94 e8 02 	call	0x5d0	; 0x5d0 <LCD_SetCursor>
     996:	87 ed       	ldi	r24, 0xD7	; 215
     998:	91 e0       	ldi	r25, 0x01	; 1
     99a:	0e 94 90 02 	call	0x520	; 0x520 <LCD_WriteString>
     99e:	66 e0       	ldi	r22, 0x06	; 6
     9a0:	70 e0       	ldi	r23, 0x00	; 0
     9a2:	81 e0       	ldi	r24, 0x01	; 1
     9a4:	0e 94 d5 08 	call	0x11aa	; 0x11aa <EEPROM_Write>
     9a8:	e1 e0       	ldi	r30, 0x01	; 1
     9aa:	ef ab       	std	Y+55, r30	; 0x37
     9ac:	71 2c       	mov	r7, r1
     9ae:	f1 e0       	ldi	r31, 0x01	; 1
     9b0:	fe ab       	std	Y+54, r31	; 0x36
     9b2:	b4 cf       	rjmp	.-152    	; 0x91c <__stack+0xbd>
     9b4:	0e 94 f4 02 	call	0x5e8	; 0x5e8 <LCD_Clear>
     9b8:	60 e0       	ldi	r22, 0x00	; 0
     9ba:	80 e0       	ldi	r24, 0x00	; 0
     9bc:	0e 94 e8 02 	call	0x5d0	; 0x5d0 <LCD_SetCursor>
     9c0:	86 ee       	ldi	r24, 0xE6	; 230
     9c2:	91 e0       	ldi	r25, 0x01	; 1
     9c4:	0e 94 90 02 	call	0x520	; 0x520 <LCD_WriteString>
     9c8:	2f ef       	ldi	r18, 0xFF	; 255
     9ca:	a2 1a       	sub	r10, r18
     9cc:	b2 0a       	sbc	r11, r18
     9ce:	33 e0       	ldi	r19, 0x03	; 3
     9d0:	a3 16       	cp	r10, r19
     9d2:	b1 04       	cpc	r11, r1
     9d4:	09 f0       	breq	.+2      	; 0x9d8 <__stack+0x179>
     9d6:	a1 cf       	rjmp	.-190    	; 0x91a <__stack+0xbb>
     9d8:	0e 94 f4 02 	call	0x5e8	; 0x5e8 <LCD_Clear>
     9dc:	60 e0       	ldi	r22, 0x00	; 0
     9de:	80 e0       	ldi	r24, 0x00	; 0
     9e0:	0e 94 e8 02 	call	0x5d0	; 0x5d0 <LCD_SetCursor>
     9e4:	81 ef       	ldi	r24, 0xF1	; 241
     9e6:	91 e0       	ldi	r25, 0x01	; 1
     9e8:	0e 94 90 02 	call	0x520	; 0x520 <LCD_WriteString>
     9ec:	8f ef       	ldi	r24, 0xFF	; 255
     9ee:	99 e5       	ldi	r25, 0x59	; 89
     9f0:	e2 e6       	ldi	r30, 0x62	; 98
     9f2:	f2 e0       	ldi	r31, 0x02	; 2
     9f4:	81 50       	subi	r24, 0x01	; 1
     9f6:	90 40       	sbci	r25, 0x00	; 0
     9f8:	e0 40       	sbci	r30, 0x00	; 0
     9fa:	f0 40       	sbci	r31, 0x00	; 0
     9fc:	d9 f7       	brne	.-10     	; 0x9f4 <__stack+0x195>
     9fe:	00 c0       	rjmp	.+0      	; 0xa00 <__stack+0x1a1>
     a00:	00 00       	nop
     a02:	0e 94 f4 02 	call	0x5e8	; 0x5e8 <LCD_Clear>
     a06:	a1 2c       	mov	r10, r1
     a08:	b1 2c       	mov	r11, r1
     a0a:	e6 c1       	rjmp	.+972    	; 0xdd8 <__stack+0x579>
     a0c:	2e a9       	ldd	r18, Y+54	; 0x36
     a0e:	21 30       	cpi	r18, 0x01	; 1
     a10:	09 f0       	breq	.+2      	; 0xa14 <__stack+0x1b5>
     a12:	84 cf       	rjmp	.-248    	; 0x91c <__stack+0xbd>
     a14:	46 01       	movw	r8, r12
     a16:	87 0c       	add	r8, r7
     a18:	91 1c       	adc	r9, r1
     a1a:	f4 01       	movw	r30, r8
     a1c:	80 83       	st	Z, r24
     a1e:	67 2d       	mov	r22, r7
     a20:	81 e0       	ldi	r24, 0x01	; 1
     a22:	0e 94 e8 02 	call	0x5d0	; 0x5d0 <LCD_SetCursor>
     a26:	f4 01       	movw	r30, r8
     a28:	60 81       	ld	r22, Z
     a2a:	70 e0       	ldi	r23, 0x00	; 0
     a2c:	80 e0       	ldi	r24, 0x00	; 0
     a2e:	90 e0       	ldi	r25, 0x00	; 0
     a30:	0e 94 a5 02 	call	0x54a	; 0x54a <LCD_WriteNumber>
     a34:	8f e3       	ldi	r24, 0x3F	; 63
     a36:	9c e9       	ldi	r25, 0x9C	; 156
     a38:	01 97       	sbiw	r24, 0x01	; 1
     a3a:	f1 f7       	brne	.-4      	; 0xa38 <__stack+0x1d9>
     a3c:	00 c0       	rjmp	.+0      	; 0xa3e <__stack+0x1df>
     a3e:	00 00       	nop
     a40:	67 2d       	mov	r22, r7
     a42:	81 e0       	ldi	r24, 0x01	; 1
     a44:	0e 94 e8 02 	call	0x5d0	; 0x5d0 <LCD_SetCursor>
     a48:	8a e2       	ldi	r24, 0x2A	; 42
     a4a:	0e 94 a3 02 	call	0x546	; 0x546 <LCD_WriteChar>
     a4e:	73 94       	inc	r7
     a50:	95 e0       	ldi	r25, 0x05	; 5
     a52:	79 12       	cpse	r7, r25
     a54:	63 cf       	rjmp	.-314    	; 0x91c <__stack+0xbd>
     a56:	0e 94 f4 02 	call	0x5e8	; 0x5e8 <LCD_Clear>
     a5a:	46 01       	movw	r8, r12
     a5c:	21 2c       	mov	r2, r1
     a5e:	31 2c       	mov	r3, r1
     a60:	b1 01       	movw	r22, r2
     a62:	f4 01       	movw	r30, r8
     a64:	81 91       	ld	r24, Z+
     a66:	4f 01       	movw	r8, r30
     a68:	0e 94 d5 08 	call	0x11aa	; 0x11aa <EEPROM_Write>
     a6c:	ff ef       	ldi	r31, 0xFF	; 255
     a6e:	2f 1a       	sub	r2, r31
     a70:	3f 0a       	sbc	r3, r31
     a72:	25 e0       	ldi	r18, 0x05	; 5
     a74:	22 16       	cp	r2, r18
     a76:	31 04       	cpc	r3, r1
     a78:	99 f7       	brne	.-26     	; 0xa60 <__stack+0x201>
     a7a:	66 e0       	ldi	r22, 0x06	; 6
     a7c:	70 e0       	ldi	r23, 0x00	; 0
     a7e:	80 e0       	ldi	r24, 0x00	; 0
     a80:	0e 94 d5 08 	call	0x11aa	; 0x11aa <EEPROM_Write>
     a84:	0e 94 f4 02 	call	0x5e8	; 0x5e8 <LCD_Clear>
     a88:	60 e0       	ldi	r22, 0x00	; 0
     a8a:	80 e0       	ldi	r24, 0x00	; 0
     a8c:	0e 94 e8 02 	call	0x5d0	; 0x5d0 <LCD_SetCursor>
     a90:	87 e0       	ldi	r24, 0x07	; 7
     a92:	92 e0       	ldi	r25, 0x02	; 2
     a94:	0e 94 90 02 	call	0x520	; 0x520 <LCD_WriteString>
     a98:	3f ef       	ldi	r19, 0xFF	; 255
     a9a:	82 e5       	ldi	r24, 0x52	; 82
     a9c:	97 e0       	ldi	r25, 0x07	; 7
     a9e:	31 50       	subi	r19, 0x01	; 1
     aa0:	80 40       	sbci	r24, 0x00	; 0
     aa2:	90 40       	sbci	r25, 0x00	; 0
     aa4:	e1 f7       	brne	.-8      	; 0xa9e <__stack+0x23f>
     aa6:	00 c0       	rjmp	.+0      	; 0xaa8 <__stack+0x249>
     aa8:	00 00       	nop
     aaa:	1f aa       	std	Y+55, r1	; 0x37
     aac:	95 c1       	rjmp	.+810    	; 0xdd8 <__stack+0x579>
     aae:	80 91 14 05 	lds	r24, 0x0514	; 0x800514 <Finish_Flag>
     ab2:	81 30       	cpi	r24, 0x01	; 1
     ab4:	61 f4       	brne	.+24     	; 0xace <__stack+0x26f>
     ab6:	be 01       	movw	r22, r28
     ab8:	6d 5c       	subi	r22, 0xCD	; 205
     aba:	7f 4f       	sbci	r23, 0xFF	; 255
     abc:	c7 01       	movw	r24, r14
     abe:	0e 94 fe 00 	call	0x1fc	; 0x1fc <UART_ReceiveTaskAndData>
     ac2:	6b a9       	ldd	r22, Y+51	; 0x33
     ac4:	c7 01       	movw	r24, r14
     ac6:	0e 94 1d 01 	call	0x23a	; 0x23a <UART_Find_Task>
     aca:	10 92 14 05 	sts	0x0514, r1	; 0x800514 <Finish_Flag>
     ace:	99 24       	eor	r9, r9
     ad0:	93 94       	inc	r9
     ad2:	87 e0       	ldi	r24, 0x07	; 7
     ad4:	0e 94 c5 0b 	call	0x178a	; 0x178a <WDT_Reset>
     ad8:	c7 01       	movw	r24, r14
     ada:	0e 94 9d 0c 	call	0x193a	; 0x193a <UART_ReceiveStringAsynch>
     ade:	0e 94 50 00 	call	0xa0	; 0xa0 <Filter_Runnable>
     ae2:	91 10       	cpse	r9, r1
     ae4:	2d c0       	rjmp	.+90     	; 0xb40 <__stack+0x2e1>
     ae6:	0e 94 f4 02 	call	0x5e8	; 0x5e8 <LCD_Clear>
     aea:	60 e0       	ldi	r22, 0x00	; 0
     aec:	80 e0       	ldi	r24, 0x00	; 0
     aee:	0e 94 e8 02 	call	0x5d0	; 0x5d0 <LCD_SetCursor>
     af2:	8c e0       	ldi	r24, 0x0C	; 12
     af4:	92 e0       	ldi	r25, 0x02	; 2
     af6:	0e 94 90 02 	call	0x520	; 0x520 <LCD_WriteString>
     afa:	61 e0       	ldi	r22, 0x01	; 1
     afc:	81 e1       	ldi	r24, 0x11	; 17
     afe:	0e 94 11 08 	call	0x1022	; 0x1022 <DIO_WritePin>
     b02:	60 e0       	ldi	r22, 0x00	; 0
     b04:	81 e0       	ldi	r24, 0x01	; 1
     b06:	0e 94 e8 02 	call	0x5d0	; 0x5d0 <LCD_SetCursor>
     b0a:	83 ec       	ldi	r24, 0xC3	; 195
     b0c:	91 e0       	ldi	r25, 0x01	; 1
     b0e:	0e 94 90 02 	call	0x520	; 0x520 <LCD_WriteString>
     b12:	66 e0       	ldi	r22, 0x06	; 6
     b14:	81 e0       	ldi	r24, 0x01	; 1
     b16:	0e 94 e8 02 	call	0x5d0	; 0x5d0 <LCD_SetCursor>
     b1a:	86 ec       	ldi	r24, 0xC6	; 198
     b1c:	91 e0       	ldi	r25, 0x01	; 1
     b1e:	0e 94 90 02 	call	0x520	; 0x520 <LCD_WriteString>
     b22:	6a e0       	ldi	r22, 0x0A	; 10
     b24:	81 e0       	ldi	r24, 0x01	; 1
     b26:	0e 94 e8 02 	call	0x5d0	; 0x5d0 <LCD_SetCursor>
     b2a:	87 e1       	ldi	r24, 0x17	; 23
     b2c:	92 e0       	ldi	r25, 0x02	; 2
     b2e:	0e 94 90 02 	call	0x520	; 0x520 <LCD_WriteString>
     b32:	6f e0       	ldi	r22, 0x0F	; 15
     b34:	81 e0       	ldi	r24, 0x01	; 1
     b36:	0e 94 e8 02 	call	0x5d0	; 0x5d0 <LCD_SetCursor>
     b3a:	85 e2       	ldi	r24, 0x25	; 37
     b3c:	0e 94 a3 02 	call	0x546	; 0x546 <LCD_WriteChar>
     b40:	80 91 13 05 	lds	r24, 0x0513	; 0x800513 <AIR_OFF_Flag>
     b44:	81 11       	cpse	r24, r1
     b46:	04 c0       	rjmp	.+8      	; 0xb50 <__stack+0x2f1>
     b48:	80 2f       	mov	r24, r16
     b4a:	0e 94 e1 00 	call	0x1c2	; 0x1c2 <Air_ConditionerOn>
     b4e:	07 c0       	rjmp	.+14     	; 0xb5e <__stack+0x2ff>
     b50:	80 91 13 05 	lds	r24, 0x0513	; 0x800513 <AIR_OFF_Flag>
     b54:	81 30       	cpi	r24, 0x01	; 1
     b56:	19 f4       	brne	.+6      	; 0xb5e <__stack+0x2ff>
     b58:	83 e0       	ldi	r24, 0x03	; 3
     b5a:	0e 94 04 03 	call	0x608	; 0x608 <MOTOR_Stop>
     b5e:	0e 94 9d 00 	call	0x13a	; 0x13a <Filter_GetFilteredValue>
     b62:	6a e0       	ldi	r22, 0x0A	; 10
     b64:	70 e0       	ldi	r23, 0x00	; 0
     b66:	0e 94 4b 0d 	call	0x1a96	; 0x1a96 <__udivmodhi4>
     b6a:	8b 01       	movw	r16, r22
     b6c:	62 e0       	ldi	r22, 0x02	; 2
     b6e:	81 e0       	ldi	r24, 0x01	; 1
     b70:	0e 94 e8 02 	call	0x5d0	; 0x5d0 <LCD_SetCursor>
     b74:	b8 01       	movw	r22, r16
     b76:	80 e0       	ldi	r24, 0x00	; 0
     b78:	90 e0       	ldi	r25, 0x00	; 0
     b7a:	0e 94 a5 02 	call	0x54a	; 0x54a <LCD_WriteNumber>
     b7e:	8e e1       	ldi	r24, 0x1E	; 30
     b80:	92 e0       	ldi	r25, 0x02	; 2
     b82:	0e 94 90 02 	call	0x520	; 0x520 <LCD_WriteString>
     b86:	0e 94 43 03 	call	0x686	; 0x686 <SENSOR_ReadGas>
     b8a:	9c 01       	movw	r18, r24
     b8c:	a4 e6       	ldi	r26, 0x64	; 100
     b8e:	b0 e0       	ldi	r27, 0x00	; 0
     b90:	0e 94 a6 0d 	call	0x1b4c	; 0x1b4c <__umulhisi3>
     b94:	23 e8       	ldi	r18, 0x83	; 131
     b96:	33 e1       	ldi	r19, 0x13	; 19
     b98:	40 e0       	ldi	r20, 0x00	; 0
     b9a:	50 e0       	ldi	r21, 0x00	; 0
     b9c:	0e 94 5f 0d 	call	0x1abe	; 0x1abe <__udivmodsi4>
     ba0:	29 01       	movw	r4, r18
     ba2:	3a 01       	movw	r6, r20
     ba4:	6c e0       	ldi	r22, 0x0C	; 12
     ba6:	81 e0       	ldi	r24, 0x01	; 1
     ba8:	0e 94 e8 02 	call	0x5d0	; 0x5d0 <LCD_SetCursor>
     bac:	c3 01       	movw	r24, r6
     bae:	b2 01       	movw	r22, r4
     bb0:	0e 94 a5 02 	call	0x54a	; 0x54a <LCD_WriteNumber>
     bb4:	8e e1       	ldi	r24, 0x1E	; 30
     bb6:	92 e0       	ldi	r25, 0x02	; 2
     bb8:	0e 94 90 02 	call	0x520	; 0x520 <LCD_WriteString>
     bbc:	f2 e3       	ldi	r31, 0x32	; 50
     bbe:	4f 16       	cp	r4, r31
     bc0:	51 04       	cpc	r5, r1
     bc2:	61 04       	cpc	r6, r1
     bc4:	71 04       	cpc	r7, r1
     bc6:	48 f0       	brcs	.+18     	; 0xbda <__stack+0x37b>
     bc8:	60 e0       	ldi	r22, 0x00	; 0
     bca:	81 e1       	ldi	r24, 0x11	; 17
     bcc:	0e 94 11 08 	call	0x1022	; 0x1022 <DIO_WritePin>
     bd0:	0e 94 f4 02 	call	0x5e8	; 0x5e8 <LCD_Clear>
     bd4:	71 2c       	mov	r7, r1
     bd6:	91 2c       	mov	r9, r1
     bd8:	4e c0       	rjmp	.+156    	; 0xc76 <__stack+0x417>
     bda:	09 32       	cpi	r16, 0x29	; 41
     bdc:	11 05       	cpc	r17, r1
     bde:	08 f0       	brcs	.+2      	; 0xbe2 <__stack+0x383>
     be0:	66 cf       	rjmp	.-308    	; 0xaae <__stack+0x24f>
     be2:	60 e0       	ldi	r22, 0x00	; 0
     be4:	81 e1       	ldi	r24, 0x11	; 17
     be6:	0e 94 11 08 	call	0x1022	; 0x1022 <DIO_WritePin>
     bea:	0e 94 f4 02 	call	0x5e8	; 0x5e8 <LCD_Clear>
     bee:	e7 c0       	rjmp	.+462    	; 0xdbe <__stack+0x55f>
     bf0:	0e 94 9d 00 	call	0x13a	; 0x13a <Filter_GetFilteredValue>
     bf4:	6a e0       	ldi	r22, 0x0A	; 10
     bf6:	70 e0       	ldi	r23, 0x00	; 0
     bf8:	0e 94 4b 0d 	call	0x1a96	; 0x1a96 <__udivmodhi4>
     bfc:	8b 01       	movw	r16, r22
     bfe:	62 e0       	ldi	r22, 0x02	; 2
     c00:	81 e0       	ldi	r24, 0x01	; 1
     c02:	0e 94 e8 02 	call	0x5d0	; 0x5d0 <LCD_SetCursor>
     c06:	b8 01       	movw	r22, r16
     c08:	80 e0       	ldi	r24, 0x00	; 0
     c0a:	90 e0       	ldi	r25, 0x00	; 0
     c0c:	0e 94 a5 02 	call	0x54a	; 0x54a <LCD_WriteNumber>
     c10:	8e e1       	ldi	r24, 0x1E	; 30
     c12:	92 e0       	ldi	r25, 0x02	; 2
     c14:	0e 94 90 02 	call	0x520	; 0x520 <LCD_WriteString>
     c18:	0e 94 43 03 	call	0x686	; 0x686 <SENSOR_ReadGas>
     c1c:	4c 01       	movw	r8, r24
     c1e:	6c e0       	ldi	r22, 0x0C	; 12
     c20:	81 e0       	ldi	r24, 0x01	; 1
     c22:	0e 94 e8 02 	call	0x5d0	; 0x5d0 <LCD_SetCursor>
     c26:	94 01       	movw	r18, r8
     c28:	a4 e6       	ldi	r26, 0x64	; 100
     c2a:	b0 e0       	ldi	r27, 0x00	; 0
     c2c:	0e 94 a6 0d 	call	0x1b4c	; 0x1b4c <__umulhisi3>
     c30:	23 e8       	ldi	r18, 0x83	; 131
     c32:	33 e1       	ldi	r19, 0x13	; 19
     c34:	40 e0       	ldi	r20, 0x00	; 0
     c36:	50 e0       	ldi	r21, 0x00	; 0
     c38:	0e 94 5f 0d 	call	0x1abe	; 0x1abe <__udivmodsi4>
     c3c:	ca 01       	movw	r24, r20
     c3e:	b9 01       	movw	r22, r18
     c40:	0e 94 a5 02 	call	0x54a	; 0x54a <LCD_WriteNumber>
     c44:	8e e1       	ldi	r24, 0x1E	; 30
     c46:	92 e0       	ldi	r25, 0x02	; 2
     c48:	0e 94 90 02 	call	0x520	; 0x520 <LCD_WriteString>
     c4c:	2b e6       	ldi	r18, 0x6B	; 107
     c4e:	62 12       	cpse	r6, r18
     c50:	57 c0       	rjmp	.+174    	; 0xd00 <__stack+0x4a1>
     c52:	99 24       	eor	r9, r9
     c54:	93 94       	inc	r9
     c56:	80 91 14 05 	lds	r24, 0x0514	; 0x800514 <Finish_Flag>
     c5a:	81 30       	cpi	r24, 0x01	; 1
     c5c:	61 f4       	brne	.+24     	; 0xc76 <__stack+0x417>
     c5e:	be 01       	movw	r22, r28
     c60:	6d 5c       	subi	r22, 0xCD	; 205
     c62:	7f 4f       	sbci	r23, 0xFF	; 255
     c64:	c7 01       	movw	r24, r14
     c66:	0e 94 fe 00 	call	0x1fc	; 0x1fc <UART_ReceiveTaskAndData>
     c6a:	6b a9       	ldd	r22, Y+51	; 0x33
     c6c:	c7 01       	movw	r24, r14
     c6e:	0e 94 1d 01 	call	0x23a	; 0x23a <UART_Find_Task>
     c72:	10 92 14 05 	sts	0x0514, r1	; 0x800514 <Finish_Flag>
     c76:	87 e0       	ldi	r24, 0x07	; 7
     c78:	0e 94 c5 0b 	call	0x178a	; 0x178a <WDT_Reset>
     c7c:	0e 94 6a 01 	call	0x2d4	; 0x2d4 <KEYPAD_GetKey>
     c80:	68 2e       	mov	r6, r24
     c82:	0e 94 50 00 	call	0xa0	; 0xa0 <Filter_Runnable>
     c86:	91 10       	cpse	r9, r1
     c88:	b3 cf       	rjmp	.-154    	; 0xbf0 <__stack+0x391>
     c8a:	0e 94 f4 02 	call	0x5e8	; 0x5e8 <LCD_Clear>
     c8e:	60 e0       	ldi	r22, 0x00	; 0
     c90:	80 e0       	ldi	r24, 0x00	; 0
     c92:	0e 94 e8 02 	call	0x5d0	; 0x5d0 <LCD_SetCursor>
     c96:	8a e1       	ldi	r24, 0x1A	; 26
     c98:	92 e0       	ldi	r25, 0x02	; 2
     c9a:	0e 94 90 02 	call	0x520	; 0x520 <LCD_WriteString>
     c9e:	86 e1       	ldi	r24, 0x16	; 22
     ca0:	0e 94 01 03 	call	0x602	; 0x602 <Led_Off>
     ca4:	8b e1       	ldi	r24, 0x1B	; 27
     ca6:	0e 94 01 03 	call	0x602	; 0x602 <Led_Off>
     caa:	82 e0       	ldi	r24, 0x02	; 2
     cac:	0e 94 22 03 	call	0x644	; 0x644 <MOTOR_CW>
     cb0:	61 e0       	ldi	r22, 0x01	; 1
     cb2:	8a e0       	ldi	r24, 0x0A	; 10
     cb4:	0e 94 11 08 	call	0x1022	; 0x1022 <DIO_WritePin>
     cb8:	61 e0       	ldi	r22, 0x01	; 1
     cba:	80 e1       	ldi	r24, 0x10	; 16
     cbc:	0e 94 11 08 	call	0x1022	; 0x1022 <DIO_WritePin>
     cc0:	60 e0       	ldi	r22, 0x00	; 0
     cc2:	81 e0       	ldi	r24, 0x01	; 1
     cc4:	0e 94 e8 02 	call	0x5d0	; 0x5d0 <LCD_SetCursor>
     cc8:	83 ec       	ldi	r24, 0xC3	; 195
     cca:	91 e0       	ldi	r25, 0x01	; 1
     ccc:	0e 94 90 02 	call	0x520	; 0x520 <LCD_WriteString>
     cd0:	66 e0       	ldi	r22, 0x06	; 6
     cd2:	81 e0       	ldi	r24, 0x01	; 1
     cd4:	0e 94 e8 02 	call	0x5d0	; 0x5d0 <LCD_SetCursor>
     cd8:	86 ec       	ldi	r24, 0xC6	; 198
     cda:	91 e0       	ldi	r25, 0x01	; 1
     cdc:	0e 94 90 02 	call	0x520	; 0x520 <LCD_WriteString>
     ce0:	6a e0       	ldi	r22, 0x0A	; 10
     ce2:	81 e0       	ldi	r24, 0x01	; 1
     ce4:	0e 94 e8 02 	call	0x5d0	; 0x5d0 <LCD_SetCursor>
     ce8:	87 e1       	ldi	r24, 0x17	; 23
     cea:	92 e0       	ldi	r25, 0x02	; 2
     cec:	0e 94 90 02 	call	0x520	; 0x520 <LCD_WriteString>
     cf0:	6f e0       	ldi	r22, 0x0F	; 15
     cf2:	81 e0       	ldi	r24, 0x01	; 1
     cf4:	0e 94 e8 02 	call	0x5d0	; 0x5d0 <LCD_SetCursor>
     cf8:	85 e2       	ldi	r24, 0x25	; 37
     cfa:	0e 94 a3 02 	call	0x546	; 0x546 <LCD_WriteChar>
     cfe:	78 cf       	rjmp	.-272    	; 0xbf0 <__stack+0x391>
     d00:	80 ed       	ldi	r24, 0xD0	; 208
     d02:	86 0d       	add	r24, r6
     d04:	8a 30       	cpi	r24, 0x0A	; 10
     d06:	08 f0       	brcs	.+2      	; 0xd0a <__stack+0x4ab>
     d08:	3f c0       	rjmp	.+126    	; 0xd88 <__stack+0x529>
     d0a:	e9 e2       	ldi	r30, 0x29	; 41
     d0c:	f0 e0       	ldi	r31, 0x00	; 0
     d0e:	ec 0f       	add	r30, r28
     d10:	fd 1f       	adc	r31, r29
     d12:	e7 0d       	add	r30, r7
     d14:	f1 1d       	adc	r31, r1
     d16:	80 83       	st	Z, r24
     d18:	73 94       	inc	r7
     d1a:	35 e0       	ldi	r19, 0x05	; 5
     d1c:	73 12       	cpse	r7, r19
     d1e:	3a c0       	rjmp	.+116    	; 0xd94 <__stack+0x535>
     d20:	b6 01       	movw	r22, r12
     d22:	ce 01       	movw	r24, r28
     d24:	89 96       	adiw	r24, 0x29	; 41
     d26:	0e 94 4e 01 	call	0x29c	; 0x29c <Compare_pass>
     d2a:	81 30       	cpi	r24, 0x01	; 1
     d2c:	09 f4       	brne	.+2      	; 0xd30 <__stack+0x4d1>
     d2e:	4c c0       	rjmp	.+152    	; 0xdc8 <__stack+0x569>
     d30:	0e 94 f4 02 	call	0x5e8	; 0x5e8 <LCD_Clear>
     d34:	60 e0       	ldi	r22, 0x00	; 0
     d36:	80 e0       	ldi	r24, 0x00	; 0
     d38:	0e 94 e8 02 	call	0x5d0	; 0x5d0 <LCD_SetCursor>
     d3c:	86 ee       	ldi	r24, 0xE6	; 230
     d3e:	91 e0       	ldi	r25, 0x01	; 1
     d40:	0e 94 90 02 	call	0x520	; 0x520 <LCD_WriteString>
     d44:	8f ef       	ldi	r24, 0xFF	; 255
     d46:	a8 1a       	sub	r10, r24
     d48:	b8 0a       	sbc	r11, r24
     d4a:	93 e0       	ldi	r25, 0x03	; 3
     d4c:	a9 16       	cp	r10, r25
     d4e:	b1 04       	cpc	r11, r1
     d50:	09 f0       	breq	.+2      	; 0xd54 <__stack+0x4f5>
     d52:	40 c0       	rjmp	.+128    	; 0xdd4 <__stack+0x575>
     d54:	0e 94 f4 02 	call	0x5e8	; 0x5e8 <LCD_Clear>
     d58:	60 e0       	ldi	r22, 0x00	; 0
     d5a:	80 e0       	ldi	r24, 0x00	; 0
     d5c:	0e 94 e8 02 	call	0x5d0	; 0x5d0 <LCD_SetCursor>
     d60:	81 ef       	ldi	r24, 0xF1	; 241
     d62:	91 e0       	ldi	r25, 0x01	; 1
     d64:	0e 94 90 02 	call	0x520	; 0x520 <LCD_WriteString>
     d68:	ef ef       	ldi	r30, 0xFF	; 255
     d6a:	f9 e5       	ldi	r31, 0x59	; 89
     d6c:	22 e6       	ldi	r18, 0x62	; 98
     d6e:	32 e0       	ldi	r19, 0x02	; 2
     d70:	e1 50       	subi	r30, 0x01	; 1
     d72:	f0 40       	sbci	r31, 0x00	; 0
     d74:	20 40       	sbci	r18, 0x00	; 0
     d76:	30 40       	sbci	r19, 0x00	; 0
     d78:	d9 f7       	brne	.-10     	; 0xd70 <__stack+0x511>
     d7a:	00 c0       	rjmp	.+0      	; 0xd7c <__stack+0x51d>
     d7c:	00 00       	nop
     d7e:	0e 94 f4 02 	call	0x5e8	; 0x5e8 <LCD_Clear>
     d82:	71 2c       	mov	r7, r1
     d84:	91 2c       	mov	r9, r1
     d86:	08 c0       	rjmp	.+16     	; 0xd98 <__stack+0x539>
     d88:	8d e3       	ldi	r24, 0x3D	; 61
     d8a:	68 12       	cpse	r6, r24
     d8c:	03 c0       	rjmp	.+6      	; 0xd94 <__stack+0x535>
     d8e:	9e a9       	ldd	r25, Y+54	; 0x36
     d90:	91 30       	cpi	r25, 0x01	; 1
     d92:	31 f0       	breq	.+12     	; 0xda0 <__stack+0x541>
     d94:	99 24       	eor	r9, r9
     d96:	93 94       	inc	r9
     d98:	e8 ad       	ldd	r30, Y+56	; 0x38
     d9a:	e1 11       	cpse	r30, r1
     d9c:	12 c0       	rjmp	.+36     	; 0xdc2 <__stack+0x563>
     d9e:	01 c0       	rjmp	.+2      	; 0xda2 <__stack+0x543>
     da0:	1e aa       	std	Y+54, r1	; 0x36
     da2:	60 e0       	ldi	r22, 0x00	; 0
     da4:	8a e0       	ldi	r24, 0x0A	; 10
     da6:	0e 94 11 08 	call	0x1022	; 0x1022 <DIO_WritePin>
     daa:	60 e0       	ldi	r22, 0x00	; 0
     dac:	80 e1       	ldi	r24, 0x10	; 16
     dae:	0e 94 11 08 	call	0x1022	; 0x1022 <DIO_WritePin>
     db2:	82 e0       	ldi	r24, 0x02	; 2
     db4:	0e 94 04 03 	call	0x608	; 0x608 <MOTOR_Stop>
     db8:	0e 94 f4 02 	call	0x5e8	; 0x5e8 <LCD_Clear>
     dbc:	18 ae       	std	Y+56, r1	; 0x38
     dbe:	51 2c       	mov	r5, r1
     dc0:	0f cd       	rjmp	.-1506   	; 0x7e0 <main+0xe2>
     dc2:	f1 e0       	ldi	r31, 0x01	; 1
     dc4:	f8 af       	std	Y+56, r31	; 0x38
     dc6:	47 cf       	rjmp	.-370    	; 0xc56 <__stack+0x3f7>
     dc8:	71 2c       	mov	r7, r1
     dca:	99 24       	eor	r9, r9
     dcc:	93 94       	inc	r9
     dce:	21 e0       	ldi	r18, 0x01	; 1
     dd0:	2e ab       	std	Y+54, r18	; 0x36
     dd2:	e2 cf       	rjmp	.-60     	; 0xd98 <__stack+0x539>
     dd4:	71 2c       	mov	r7, r1
     dd6:	de cf       	rjmp	.-68     	; 0xd94 <__stack+0x535>
     dd8:	51 2c       	mov	r5, r1
     dda:	1e aa       	std	Y+54, r1	; 0x36
     ddc:	01 cd       	rjmp	.-1534   	; 0x7e0 <main+0xe2>

00000dde <ADC_Init>:
     dde:	80 91 60 01 	lds	r24, 0x0160	; 0x800160 <Vref>
     de2:	81 30       	cpi	r24, 0x01	; 1
     de4:	41 f0       	breq	.+16     	; 0xdf6 <ADC_Init+0x18>
     de6:	28 f0       	brcs	.+10     	; 0xdf2 <ADC_Init+0x14>
     de8:	82 30       	cpi	r24, 0x02	; 2
     dea:	39 f4       	brne	.+14     	; 0xdfa <ADC_Init+0x1c>
     dec:	3e 9a       	sbi	0x07, 6	; 7
     dee:	3f 9a       	sbi	0x07, 7	; 7
     df0:	04 c0       	rjmp	.+8      	; 0xdfa <ADC_Init+0x1c>
     df2:	3e 98       	cbi	0x07, 6	; 7
     df4:	01 c0       	rjmp	.+2      	; 0xdf8 <ADC_Init+0x1a>
     df6:	3e 9a       	sbi	0x07, 6	; 7
     df8:	3f 98       	cbi	0x07, 7	; 7
     dfa:	86 b1       	in	r24, 0x06	; 6
     dfc:	88 7f       	andi	r24, 0xF8	; 248
     dfe:	86 b9       	out	0x06, r24	; 6
     e00:	96 b1       	in	r25, 0x06	; 6
     e02:	80 91 61 01 	lds	r24, 0x0161	; 0x800161 <Scaler>
     e06:	89 2b       	or	r24, r25
     e08:	86 b9       	out	0x06, r24	; 6
     e0a:	37 9a       	sbi	0x06, 7	; 6
     e0c:	08 95       	ret

00000e0e <ADC_Read>:
     e0e:	97 b1       	in	r25, 0x07	; 7
     e10:	90 7e       	andi	r25, 0xE0	; 224
     e12:	97 b9       	out	0x07, r25	; 7
     e14:	97 b1       	in	r25, 0x07	; 7
     e16:	89 2b       	or	r24, r25
     e18:	87 b9       	out	0x07, r24	; 7
     e1a:	36 9a       	sbi	0x06, 6	; 6
     e1c:	36 99       	sbic	0x06, 6	; 6
     e1e:	fe cf       	rjmp	.-4      	; 0xe1c <ADC_Read+0xe>
     e20:	84 b1       	in	r24, 0x04	; 4
     e22:	95 b1       	in	r25, 0x05	; 5
     e24:	08 95       	ret

00000e26 <ADC_ReadVolt1>:
     e26:	0e 94 07 07 	call	0xe0e	; 0xe0e <ADC_Read>
     e2a:	9c 01       	movw	r18, r24
     e2c:	a8 e8       	ldi	r26, 0x88	; 136
     e2e:	b3 e1       	ldi	r27, 0x13	; 19
     e30:	0e 94 a6 0d 	call	0x1b4c	; 0x1b4c <__umulhisi3>
     e34:	dc 01       	movw	r26, r24
     e36:	cb 01       	movw	r24, r22
     e38:	2a e0       	ldi	r18, 0x0A	; 10
     e3a:	b6 95       	lsr	r27
     e3c:	a7 95       	ror	r26
     e3e:	97 95       	ror	r25
     e40:	87 95       	ror	r24
     e42:	2a 95       	dec	r18
     e44:	d1 f7       	brne	.-12     	; 0xe3a <ADC_ReadVolt1+0x14>
     e46:	08 95       	ret

00000e48 <DIO_InitPin>:
     e48:	98 2f       	mov	r25, r24
     e4a:	97 70       	andi	r25, 0x07	; 7
     e4c:	61 11       	cpse	r22, r1
     e4e:	4b c0       	rjmp	.+150    	; 0xee6 <DIO_InitPin+0x9e>
     e50:	88 30       	cpi	r24, 0x08	; 8
     e52:	78 f4       	brcc	.+30     	; 0xe72 <DIO_InitPin+0x2a>
     e54:	4a b3       	in	r20, 0x1a	; 26
     e56:	21 e0       	ldi	r18, 0x01	; 1
     e58:	30 e0       	ldi	r19, 0x00	; 0
     e5a:	09 2e       	mov	r0, r25
     e5c:	01 c0       	rjmp	.+2      	; 0xe60 <DIO_InitPin+0x18>
     e5e:	22 0f       	add	r18, r18
     e60:	0a 94       	dec	r0
     e62:	ea f7       	brpl	.-6      	; 0xe5e <DIO_InitPin+0x16>
     e64:	34 2f       	mov	r19, r20
     e66:	32 2b       	or	r19, r18
     e68:	3a bb       	out	0x1a, r19	; 26
     e6a:	3b b3       	in	r19, 0x1b	; 27
     e6c:	20 95       	com	r18
     e6e:	23 23       	and	r18, r19
     e70:	2b bb       	out	0x1b, r18	; 27
     e72:	28 ef       	ldi	r18, 0xF8	; 248
     e74:	28 0f       	add	r18, r24
     e76:	28 30       	cpi	r18, 0x08	; 8
     e78:	78 f4       	brcc	.+30     	; 0xe98 <DIO_InitPin+0x50>
     e7a:	47 b3       	in	r20, 0x17	; 23
     e7c:	21 e0       	ldi	r18, 0x01	; 1
     e7e:	30 e0       	ldi	r19, 0x00	; 0
     e80:	09 2e       	mov	r0, r25
     e82:	01 c0       	rjmp	.+2      	; 0xe86 <DIO_InitPin+0x3e>
     e84:	22 0f       	add	r18, r18
     e86:	0a 94       	dec	r0
     e88:	ea f7       	brpl	.-6      	; 0xe84 <DIO_InitPin+0x3c>
     e8a:	34 2f       	mov	r19, r20
     e8c:	32 2b       	or	r19, r18
     e8e:	37 bb       	out	0x17, r19	; 23
     e90:	38 b3       	in	r19, 0x18	; 24
     e92:	20 95       	com	r18
     e94:	23 23       	and	r18, r19
     e96:	28 bb       	out	0x18, r18	; 24
     e98:	20 ef       	ldi	r18, 0xF0	; 240
     e9a:	28 0f       	add	r18, r24
     e9c:	28 30       	cpi	r18, 0x08	; 8
     e9e:	78 f4       	brcc	.+30     	; 0xebe <DIO_InitPin+0x76>
     ea0:	44 b3       	in	r20, 0x14	; 20
     ea2:	21 e0       	ldi	r18, 0x01	; 1
     ea4:	30 e0       	ldi	r19, 0x00	; 0
     ea6:	09 2e       	mov	r0, r25
     ea8:	01 c0       	rjmp	.+2      	; 0xeac <DIO_InitPin+0x64>
     eaa:	22 0f       	add	r18, r18
     eac:	0a 94       	dec	r0
     eae:	ea f7       	brpl	.-6      	; 0xeaa <DIO_InitPin+0x62>
     eb0:	34 2f       	mov	r19, r20
     eb2:	32 2b       	or	r19, r18
     eb4:	34 bb       	out	0x14, r19	; 20
     eb6:	35 b3       	in	r19, 0x15	; 21
     eb8:	20 95       	com	r18
     eba:	23 23       	and	r18, r19
     ebc:	25 bb       	out	0x15, r18	; 21
     ebe:	88 51       	subi	r24, 0x18	; 24
     ec0:	88 30       	cpi	r24, 0x08	; 8
     ec2:	08 f0       	brcs	.+2      	; 0xec6 <DIO_InitPin+0x7e>
     ec4:	ad c0       	rjmp	.+346    	; 0x1020 <DIO_InitPin+0x1d8>
     ec6:	41 b3       	in	r20, 0x11	; 17
     ec8:	21 e0       	ldi	r18, 0x01	; 1
     eca:	30 e0       	ldi	r19, 0x00	; 0
     ecc:	b9 01       	movw	r22, r18
     ece:	02 c0       	rjmp	.+4      	; 0xed4 <DIO_InitPin+0x8c>
     ed0:	66 0f       	add	r22, r22
     ed2:	77 1f       	adc	r23, r23
     ed4:	9a 95       	dec	r25
     ed6:	e2 f7       	brpl	.-8      	; 0xed0 <DIO_InitPin+0x88>
     ed8:	cb 01       	movw	r24, r22
     eda:	94 2f       	mov	r25, r20
     edc:	98 2b       	or	r25, r24
     ede:	91 bb       	out	0x11, r25	; 17
     ee0:	92 b3       	in	r25, 0x12	; 18
     ee2:	80 95       	com	r24
     ee4:	4d c0       	rjmp	.+154    	; 0xf80 <DIO_InitPin+0x138>
     ee6:	61 30       	cpi	r22, 0x01	; 1
     ee8:	09 f0       	breq	.+2      	; 0xeec <DIO_InitPin+0xa4>
     eea:	4c c0       	rjmp	.+152    	; 0xf84 <DIO_InitPin+0x13c>
     eec:	88 30       	cpi	r24, 0x08	; 8
     eee:	78 f4       	brcc	.+30     	; 0xf0e <DIO_InitPin+0xc6>
     ef0:	4a b3       	in	r20, 0x1a	; 26
     ef2:	21 e0       	ldi	r18, 0x01	; 1
     ef4:	30 e0       	ldi	r19, 0x00	; 0
     ef6:	09 2e       	mov	r0, r25
     ef8:	01 c0       	rjmp	.+2      	; 0xefc <DIO_InitPin+0xb4>
     efa:	22 0f       	add	r18, r18
     efc:	0a 94       	dec	r0
     efe:	ea f7       	brpl	.-6      	; 0xefa <DIO_InitPin+0xb2>
     f00:	20 95       	com	r18
     f02:	34 2f       	mov	r19, r20
     f04:	32 23       	and	r19, r18
     f06:	3a bb       	out	0x1a, r19	; 26
     f08:	3b b3       	in	r19, 0x1b	; 27
     f0a:	23 23       	and	r18, r19
     f0c:	2b bb       	out	0x1b, r18	; 27
     f0e:	28 ef       	ldi	r18, 0xF8	; 248
     f10:	28 0f       	add	r18, r24
     f12:	28 30       	cpi	r18, 0x08	; 8
     f14:	78 f4       	brcc	.+30     	; 0xf34 <DIO_InitPin+0xec>
     f16:	47 b3       	in	r20, 0x17	; 23
     f18:	21 e0       	ldi	r18, 0x01	; 1
     f1a:	30 e0       	ldi	r19, 0x00	; 0
     f1c:	09 2e       	mov	r0, r25
     f1e:	01 c0       	rjmp	.+2      	; 0xf22 <DIO_InitPin+0xda>
     f20:	22 0f       	add	r18, r18
     f22:	0a 94       	dec	r0
     f24:	ea f7       	brpl	.-6      	; 0xf20 <DIO_InitPin+0xd8>
     f26:	20 95       	com	r18
     f28:	34 2f       	mov	r19, r20
     f2a:	32 23       	and	r19, r18
     f2c:	37 bb       	out	0x17, r19	; 23
     f2e:	38 b3       	in	r19, 0x18	; 24
     f30:	23 23       	and	r18, r19
     f32:	28 bb       	out	0x18, r18	; 24
     f34:	20 ef       	ldi	r18, 0xF0	; 240
     f36:	28 0f       	add	r18, r24
     f38:	28 30       	cpi	r18, 0x08	; 8
     f3a:	78 f4       	brcc	.+30     	; 0xf5a <DIO_InitPin+0x112>
     f3c:	44 b3       	in	r20, 0x14	; 20
     f3e:	21 e0       	ldi	r18, 0x01	; 1
     f40:	30 e0       	ldi	r19, 0x00	; 0
     f42:	09 2e       	mov	r0, r25
     f44:	01 c0       	rjmp	.+2      	; 0xf48 <DIO_InitPin+0x100>
     f46:	22 0f       	add	r18, r18
     f48:	0a 94       	dec	r0
     f4a:	ea f7       	brpl	.-6      	; 0xf46 <DIO_InitPin+0xfe>
     f4c:	20 95       	com	r18
     f4e:	34 2f       	mov	r19, r20
     f50:	32 23       	and	r19, r18
     f52:	34 bb       	out	0x14, r19	; 20
     f54:	35 b3       	in	r19, 0x15	; 21
     f56:	23 23       	and	r18, r19
     f58:	25 bb       	out	0x15, r18	; 21
     f5a:	88 51       	subi	r24, 0x18	; 24
     f5c:	88 30       	cpi	r24, 0x08	; 8
     f5e:	08 f0       	brcs	.+2      	; 0xf62 <DIO_InitPin+0x11a>
     f60:	5f c0       	rjmp	.+190    	; 0x1020 <DIO_InitPin+0x1d8>
     f62:	41 b3       	in	r20, 0x11	; 17
     f64:	21 e0       	ldi	r18, 0x01	; 1
     f66:	30 e0       	ldi	r19, 0x00	; 0
     f68:	b9 01       	movw	r22, r18
     f6a:	02 c0       	rjmp	.+4      	; 0xf70 <DIO_InitPin+0x128>
     f6c:	66 0f       	add	r22, r22
     f6e:	77 1f       	adc	r23, r23
     f70:	9a 95       	dec	r25
     f72:	e2 f7       	brpl	.-8      	; 0xf6c <DIO_InitPin+0x124>
     f74:	cb 01       	movw	r24, r22
     f76:	80 95       	com	r24
     f78:	94 2f       	mov	r25, r20
     f7a:	98 23       	and	r25, r24
     f7c:	91 bb       	out	0x11, r25	; 17
     f7e:	92 b3       	in	r25, 0x12	; 18
     f80:	89 23       	and	r24, r25
     f82:	4d c0       	rjmp	.+154    	; 0x101e <DIO_InitPin+0x1d6>
     f84:	62 30       	cpi	r22, 0x02	; 2
     f86:	09 f0       	breq	.+2      	; 0xf8a <DIO_InitPin+0x142>
     f88:	4b c0       	rjmp	.+150    	; 0x1020 <DIO_InitPin+0x1d8>
     f8a:	88 30       	cpi	r24, 0x08	; 8
     f8c:	78 f4       	brcc	.+30     	; 0xfac <DIO_InitPin+0x164>
     f8e:	4a b3       	in	r20, 0x1a	; 26
     f90:	21 e0       	ldi	r18, 0x01	; 1
     f92:	30 e0       	ldi	r19, 0x00	; 0
     f94:	09 2e       	mov	r0, r25
     f96:	01 c0       	rjmp	.+2      	; 0xf9a <DIO_InitPin+0x152>
     f98:	22 0f       	add	r18, r18
     f9a:	0a 94       	dec	r0
     f9c:	ea f7       	brpl	.-6      	; 0xf98 <DIO_InitPin+0x150>
     f9e:	32 2f       	mov	r19, r18
     fa0:	30 95       	com	r19
     fa2:	34 23       	and	r19, r20
     fa4:	3a bb       	out	0x1a, r19	; 26
     fa6:	3b b3       	in	r19, 0x1b	; 27
     fa8:	23 2b       	or	r18, r19
     faa:	2b bb       	out	0x1b, r18	; 27
     fac:	28 ef       	ldi	r18, 0xF8	; 248
     fae:	28 0f       	add	r18, r24
     fb0:	28 30       	cpi	r18, 0x08	; 8
     fb2:	78 f4       	brcc	.+30     	; 0xfd2 <DIO_InitPin+0x18a>
     fb4:	47 b3       	in	r20, 0x17	; 23
     fb6:	21 e0       	ldi	r18, 0x01	; 1
     fb8:	30 e0       	ldi	r19, 0x00	; 0
     fba:	09 2e       	mov	r0, r25
     fbc:	01 c0       	rjmp	.+2      	; 0xfc0 <DIO_InitPin+0x178>
     fbe:	22 0f       	add	r18, r18
     fc0:	0a 94       	dec	r0
     fc2:	ea f7       	brpl	.-6      	; 0xfbe <DIO_InitPin+0x176>
     fc4:	32 2f       	mov	r19, r18
     fc6:	30 95       	com	r19
     fc8:	34 23       	and	r19, r20
     fca:	37 bb       	out	0x17, r19	; 23
     fcc:	38 b3       	in	r19, 0x18	; 24
     fce:	23 2b       	or	r18, r19
     fd0:	28 bb       	out	0x18, r18	; 24
     fd2:	20 ef       	ldi	r18, 0xF0	; 240
     fd4:	28 0f       	add	r18, r24
     fd6:	28 30       	cpi	r18, 0x08	; 8
     fd8:	78 f4       	brcc	.+30     	; 0xff8 <DIO_InitPin+0x1b0>
     fda:	44 b3       	in	r20, 0x14	; 20
     fdc:	21 e0       	ldi	r18, 0x01	; 1
     fde:	30 e0       	ldi	r19, 0x00	; 0
     fe0:	09 2e       	mov	r0, r25
     fe2:	01 c0       	rjmp	.+2      	; 0xfe6 <DIO_InitPin+0x19e>
     fe4:	22 0f       	add	r18, r18
     fe6:	0a 94       	dec	r0
     fe8:	ea f7       	brpl	.-6      	; 0xfe4 <DIO_InitPin+0x19c>
     fea:	32 2f       	mov	r19, r18
     fec:	30 95       	com	r19
     fee:	34 23       	and	r19, r20
     ff0:	34 bb       	out	0x14, r19	; 20
     ff2:	35 b3       	in	r19, 0x15	; 21
     ff4:	23 2b       	or	r18, r19
     ff6:	25 bb       	out	0x15, r18	; 21
     ff8:	88 51       	subi	r24, 0x18	; 24
     ffa:	88 30       	cpi	r24, 0x08	; 8
     ffc:	88 f4       	brcc	.+34     	; 0x1020 <DIO_InitPin+0x1d8>
     ffe:	41 b3       	in	r20, 0x11	; 17
    1000:	21 e0       	ldi	r18, 0x01	; 1
    1002:	30 e0       	ldi	r19, 0x00	; 0
    1004:	b9 01       	movw	r22, r18
    1006:	02 c0       	rjmp	.+4      	; 0x100c <DIO_InitPin+0x1c4>
    1008:	66 0f       	add	r22, r22
    100a:	77 1f       	adc	r23, r23
    100c:	9a 95       	dec	r25
    100e:	e2 f7       	brpl	.-8      	; 0x1008 <DIO_InitPin+0x1c0>
    1010:	cb 01       	movw	r24, r22
    1012:	96 2f       	mov	r25, r22
    1014:	90 95       	com	r25
    1016:	94 23       	and	r25, r20
    1018:	91 bb       	out	0x11, r25	; 17
    101a:	92 b3       	in	r25, 0x12	; 18
    101c:	89 2b       	or	r24, r25
    101e:	82 bb       	out	0x12, r24	; 18
    1020:	08 95       	ret

00001022 <DIO_WritePin>:
    1022:	98 2f       	mov	r25, r24
    1024:	97 70       	andi	r25, 0x07	; 7
    1026:	61 11       	cpse	r22, r1
    1028:	3c c0       	rjmp	.+120    	; 0x10a2 <DIO_WritePin+0x80>
    102a:	88 30       	cpi	r24, 0x08	; 8
    102c:	58 f4       	brcc	.+22     	; 0x1044 <DIO_WritePin+0x22>
    102e:	4b b3       	in	r20, 0x1b	; 27
    1030:	21 e0       	ldi	r18, 0x01	; 1
    1032:	30 e0       	ldi	r19, 0x00	; 0
    1034:	09 2e       	mov	r0, r25
    1036:	01 c0       	rjmp	.+2      	; 0x103a <DIO_WritePin+0x18>
    1038:	22 0f       	add	r18, r18
    103a:	0a 94       	dec	r0
    103c:	ea f7       	brpl	.-6      	; 0x1038 <DIO_WritePin+0x16>
    103e:	20 95       	com	r18
    1040:	24 23       	and	r18, r20
    1042:	2b bb       	out	0x1b, r18	; 27
    1044:	28 ef       	ldi	r18, 0xF8	; 248
    1046:	28 0f       	add	r18, r24
    1048:	28 30       	cpi	r18, 0x08	; 8
    104a:	58 f4       	brcc	.+22     	; 0x1062 <DIO_WritePin+0x40>
    104c:	48 b3       	in	r20, 0x18	; 24
    104e:	21 e0       	ldi	r18, 0x01	; 1
    1050:	30 e0       	ldi	r19, 0x00	; 0
    1052:	09 2e       	mov	r0, r25
    1054:	01 c0       	rjmp	.+2      	; 0x1058 <DIO_WritePin+0x36>
    1056:	22 0f       	add	r18, r18
    1058:	0a 94       	dec	r0
    105a:	ea f7       	brpl	.-6      	; 0x1056 <DIO_WritePin+0x34>
    105c:	20 95       	com	r18
    105e:	24 23       	and	r18, r20
    1060:	28 bb       	out	0x18, r18	; 24
    1062:	20 ef       	ldi	r18, 0xF0	; 240
    1064:	28 0f       	add	r18, r24
    1066:	28 30       	cpi	r18, 0x08	; 8
    1068:	58 f4       	brcc	.+22     	; 0x1080 <DIO_WritePin+0x5e>
    106a:	45 b3       	in	r20, 0x15	; 21
    106c:	21 e0       	ldi	r18, 0x01	; 1
    106e:	30 e0       	ldi	r19, 0x00	; 0
    1070:	09 2e       	mov	r0, r25
    1072:	01 c0       	rjmp	.+2      	; 0x1076 <DIO_WritePin+0x54>
    1074:	22 0f       	add	r18, r18
    1076:	0a 94       	dec	r0
    1078:	ea f7       	brpl	.-6      	; 0x1074 <DIO_WritePin+0x52>
    107a:	20 95       	com	r18
    107c:	24 23       	and	r18, r20
    107e:	25 bb       	out	0x15, r18	; 21
    1080:	88 51       	subi	r24, 0x18	; 24
    1082:	88 30       	cpi	r24, 0x08	; 8
    1084:	08 f0       	brcs	.+2      	; 0x1088 <DIO_WritePin+0x66>
    1086:	46 c0       	rjmp	.+140    	; 0x1114 <DIO_WritePin+0xf2>
    1088:	42 b3       	in	r20, 0x12	; 18
    108a:	21 e0       	ldi	r18, 0x01	; 1
    108c:	30 e0       	ldi	r19, 0x00	; 0
    108e:	b9 01       	movw	r22, r18
    1090:	02 c0       	rjmp	.+4      	; 0x1096 <DIO_WritePin+0x74>
    1092:	66 0f       	add	r22, r22
    1094:	77 1f       	adc	r23, r23
    1096:	9a 95       	dec	r25
    1098:	e2 f7       	brpl	.-8      	; 0x1092 <DIO_WritePin+0x70>
    109a:	cb 01       	movw	r24, r22
    109c:	80 95       	com	r24
    109e:	84 23       	and	r24, r20
    10a0:	38 c0       	rjmp	.+112    	; 0x1112 <DIO_WritePin+0xf0>
    10a2:	61 30       	cpi	r22, 0x01	; 1
    10a4:	b9 f5       	brne	.+110    	; 0x1114 <DIO_WritePin+0xf2>
    10a6:	88 30       	cpi	r24, 0x08	; 8
    10a8:	50 f4       	brcc	.+20     	; 0x10be <DIO_WritePin+0x9c>
    10aa:	4b b3       	in	r20, 0x1b	; 27
    10ac:	21 e0       	ldi	r18, 0x01	; 1
    10ae:	30 e0       	ldi	r19, 0x00	; 0
    10b0:	09 2e       	mov	r0, r25
    10b2:	01 c0       	rjmp	.+2      	; 0x10b6 <DIO_WritePin+0x94>
    10b4:	22 0f       	add	r18, r18
    10b6:	0a 94       	dec	r0
    10b8:	ea f7       	brpl	.-6      	; 0x10b4 <DIO_WritePin+0x92>
    10ba:	24 2b       	or	r18, r20
    10bc:	2b bb       	out	0x1b, r18	; 27
    10be:	28 ef       	ldi	r18, 0xF8	; 248
    10c0:	28 0f       	add	r18, r24
    10c2:	28 30       	cpi	r18, 0x08	; 8
    10c4:	50 f4       	brcc	.+20     	; 0x10da <DIO_WritePin+0xb8>
    10c6:	48 b3       	in	r20, 0x18	; 24
    10c8:	21 e0       	ldi	r18, 0x01	; 1
    10ca:	30 e0       	ldi	r19, 0x00	; 0
    10cc:	09 2e       	mov	r0, r25
    10ce:	01 c0       	rjmp	.+2      	; 0x10d2 <DIO_WritePin+0xb0>
    10d0:	22 0f       	add	r18, r18
    10d2:	0a 94       	dec	r0
    10d4:	ea f7       	brpl	.-6      	; 0x10d0 <DIO_WritePin+0xae>
    10d6:	24 2b       	or	r18, r20
    10d8:	28 bb       	out	0x18, r18	; 24
    10da:	20 ef       	ldi	r18, 0xF0	; 240
    10dc:	28 0f       	add	r18, r24
    10de:	28 30       	cpi	r18, 0x08	; 8
    10e0:	50 f4       	brcc	.+20     	; 0x10f6 <DIO_WritePin+0xd4>
    10e2:	45 b3       	in	r20, 0x15	; 21
    10e4:	21 e0       	ldi	r18, 0x01	; 1
    10e6:	30 e0       	ldi	r19, 0x00	; 0
    10e8:	09 2e       	mov	r0, r25
    10ea:	01 c0       	rjmp	.+2      	; 0x10ee <DIO_WritePin+0xcc>
    10ec:	22 0f       	add	r18, r18
    10ee:	0a 94       	dec	r0
    10f0:	ea f7       	brpl	.-6      	; 0x10ec <DIO_WritePin+0xca>
    10f2:	24 2b       	or	r18, r20
    10f4:	25 bb       	out	0x15, r18	; 21
    10f6:	88 51       	subi	r24, 0x18	; 24
    10f8:	88 30       	cpi	r24, 0x08	; 8
    10fa:	60 f4       	brcc	.+24     	; 0x1114 <DIO_WritePin+0xf2>
    10fc:	42 b3       	in	r20, 0x12	; 18
    10fe:	21 e0       	ldi	r18, 0x01	; 1
    1100:	30 e0       	ldi	r19, 0x00	; 0
    1102:	b9 01       	movw	r22, r18
    1104:	02 c0       	rjmp	.+4      	; 0x110a <DIO_WritePin+0xe8>
    1106:	66 0f       	add	r22, r22
    1108:	77 1f       	adc	r23, r23
    110a:	9a 95       	dec	r25
    110c:	e2 f7       	brpl	.-8      	; 0x1106 <DIO_WritePin+0xe4>
    110e:	cb 01       	movw	r24, r22
    1110:	84 2b       	or	r24, r20
    1112:	82 bb       	out	0x12, r24	; 18
    1114:	08 95       	ret

00001116 <DIO_ReadPin>:
    1116:	48 2f       	mov	r20, r24
    1118:	47 70       	andi	r20, 0x07	; 7
    111a:	88 30       	cpi	r24, 0x08	; 8
    111c:	50 f4       	brcc	.+20     	; 0x1132 <DIO_ReadPin+0x1c>
    111e:	29 b3       	in	r18, 0x19	; 25
    1120:	30 e0       	ldi	r19, 0x00	; 0
    1122:	04 2e       	mov	r0, r20
    1124:	02 c0       	rjmp	.+4      	; 0x112a <DIO_ReadPin+0x14>
    1126:	35 95       	asr	r19
    1128:	27 95       	ror	r18
    112a:	0a 94       	dec	r0
    112c:	e2 f7       	brpl	.-8      	; 0x1126 <DIO_ReadPin+0x10>
    112e:	21 70       	andi	r18, 0x01	; 1
    1130:	01 c0       	rjmp	.+2      	; 0x1134 <DIO_ReadPin+0x1e>
    1132:	20 e0       	ldi	r18, 0x00	; 0
    1134:	98 ef       	ldi	r25, 0xF8	; 248
    1136:	98 0f       	add	r25, r24
    1138:	98 30       	cpi	r25, 0x08	; 8
    113a:	48 f4       	brcc	.+18     	; 0x114e <DIO_ReadPin+0x38>
    113c:	26 b3       	in	r18, 0x16	; 22
    113e:	30 e0       	ldi	r19, 0x00	; 0
    1140:	04 2e       	mov	r0, r20
    1142:	02 c0       	rjmp	.+4      	; 0x1148 <DIO_ReadPin+0x32>
    1144:	35 95       	asr	r19
    1146:	27 95       	ror	r18
    1148:	0a 94       	dec	r0
    114a:	e2 f7       	brpl	.-8      	; 0x1144 <DIO_ReadPin+0x2e>
    114c:	21 70       	andi	r18, 0x01	; 1
    114e:	90 ef       	ldi	r25, 0xF0	; 240
    1150:	98 0f       	add	r25, r24
    1152:	98 30       	cpi	r25, 0x08	; 8
    1154:	48 f4       	brcc	.+18     	; 0x1168 <DIO_ReadPin+0x52>
    1156:	23 b3       	in	r18, 0x13	; 19
    1158:	30 e0       	ldi	r19, 0x00	; 0
    115a:	04 2e       	mov	r0, r20
    115c:	02 c0       	rjmp	.+4      	; 0x1162 <DIO_ReadPin+0x4c>
    115e:	35 95       	asr	r19
    1160:	27 95       	ror	r18
    1162:	0a 94       	dec	r0
    1164:	e2 f7       	brpl	.-8      	; 0x115e <DIO_ReadPin+0x48>
    1166:	21 70       	andi	r18, 0x01	; 1
    1168:	88 51       	subi	r24, 0x18	; 24
    116a:	88 30       	cpi	r24, 0x08	; 8
    116c:	48 f4       	brcc	.+18     	; 0x1180 <DIO_ReadPin+0x6a>
    116e:	80 b3       	in	r24, 0x10	; 16
    1170:	90 e0       	ldi	r25, 0x00	; 0
    1172:	02 c0       	rjmp	.+4      	; 0x1178 <DIO_ReadPin+0x62>
    1174:	95 95       	asr	r25
    1176:	87 95       	ror	r24
    1178:	4a 95       	dec	r20
    117a:	e2 f7       	brpl	.-8      	; 0x1174 <DIO_ReadPin+0x5e>
    117c:	28 2f       	mov	r18, r24
    117e:	21 70       	andi	r18, 0x01	; 1
    1180:	82 2f       	mov	r24, r18
    1182:	08 95       	ret

00001184 <DIO_Init>:
    1184:	0f 93       	push	r16
    1186:	1f 93       	push	r17
    1188:	cf 93       	push	r28
    118a:	03 e6       	ldi	r16, 0x63	; 99
    118c:	11 e0       	ldi	r17, 0x01	; 1
    118e:	c0 e0       	ldi	r28, 0x00	; 0
    1190:	f8 01       	movw	r30, r16
    1192:	61 91       	ld	r22, Z+
    1194:	8f 01       	movw	r16, r30
    1196:	8c 2f       	mov	r24, r28
    1198:	0e 94 24 07 	call	0xe48	; 0xe48 <DIO_InitPin>
    119c:	cf 5f       	subi	r28, 0xFF	; 255
    119e:	c0 32       	cpi	r28, 0x20	; 32
    11a0:	b9 f7       	brne	.-18     	; 0x1190 <DIO_Init+0xc>
    11a2:	cf 91       	pop	r28
    11a4:	1f 91       	pop	r17
    11a6:	0f 91       	pop	r16
    11a8:	08 95       	ret

000011aa <EEPROM_Write>:
    11aa:	e1 99       	sbic	0x1c, 1	; 28
    11ac:	fe cf       	rjmp	.-4      	; 0x11aa <EEPROM_Write>
    11ae:	7f bb       	out	0x1f, r23	; 31
    11b0:	6e bb       	out	0x1e, r22	; 30
    11b2:	8d bb       	out	0x1d, r24	; 29
    11b4:	f8 94       	cli
    11b6:	e2 9a       	sbi	0x1c, 2	; 28
    11b8:	e1 9a       	sbi	0x1c, 1	; 28
    11ba:	78 94       	sei
    11bc:	08 95       	ret

000011be <EEPROM_Read>:
    11be:	e1 99       	sbic	0x1c, 1	; 28
    11c0:	fe cf       	rjmp	.-4      	; 0x11be <EEPROM_Read>
    11c2:	9f bb       	out	0x1f, r25	; 31
    11c4:	8e bb       	out	0x1e, r24	; 30
    11c6:	e0 9a       	sbi	0x1c, 0	; 28
    11c8:	8d b3       	in	r24, 0x1d	; 29
    11ca:	08 95       	ret

000011cc <__vector_17>:
    11cc:	1f 92       	push	r1
    11ce:	0f 92       	push	r0
    11d0:	0f b6       	in	r0, 0x3f	; 63
    11d2:	0f 92       	push	r0
    11d4:	11 24       	eor	r1, r1
    11d6:	2f 93       	push	r18
    11d8:	3f 93       	push	r19
    11da:	4f 93       	push	r20
    11dc:	5f 93       	push	r21
    11de:	6f 93       	push	r22
    11e0:	7f 93       	push	r23
    11e2:	8f 93       	push	r24
    11e4:	9f 93       	push	r25
    11e6:	af 93       	push	r26
    11e8:	bf 93       	push	r27
    11ea:	ef 93       	push	r30
    11ec:	ff 93       	push	r31
    11ee:	e0 91 3b 02 	lds	r30, 0x023B	; 0x80023b <eeprom_ready>
    11f2:	f0 91 3c 02 	lds	r31, 0x023C	; 0x80023c <eeprom_ready+0x1>
    11f6:	30 97       	sbiw	r30, 0x00	; 0
    11f8:	09 f0       	breq	.+2      	; 0x11fc <__vector_17+0x30>
    11fa:	09 95       	icall
    11fc:	ff 91       	pop	r31
    11fe:	ef 91       	pop	r30
    1200:	bf 91       	pop	r27
    1202:	af 91       	pop	r26
    1204:	9f 91       	pop	r25
    1206:	8f 91       	pop	r24
    1208:	7f 91       	pop	r23
    120a:	6f 91       	pop	r22
    120c:	5f 91       	pop	r21
    120e:	4f 91       	pop	r20
    1210:	3f 91       	pop	r19
    1212:	2f 91       	pop	r18
    1214:	0f 90       	pop	r0
    1216:	0f be       	out	0x3f, r0	; 63
    1218:	0f 90       	pop	r0
    121a:	1f 90       	pop	r1
    121c:	18 95       	reti

0000121e <__vector_1>:
    121e:	1f 92       	push	r1
    1220:	0f 92       	push	r0
    1222:	0f b6       	in	r0, 0x3f	; 63
    1224:	0f 92       	push	r0
    1226:	11 24       	eor	r1, r1
    1228:	2f 93       	push	r18
    122a:	3f 93       	push	r19
    122c:	4f 93       	push	r20
    122e:	5f 93       	push	r21
    1230:	6f 93       	push	r22
    1232:	7f 93       	push	r23
    1234:	8f 93       	push	r24
    1236:	9f 93       	push	r25
    1238:	af 93       	push	r26
    123a:	bf 93       	push	r27
    123c:	ef 93       	push	r30
    123e:	ff 93       	push	r31
    1240:	e0 91 41 02 	lds	r30, 0x0241	; 0x800241 <INT0_Fptr>
    1244:	f0 91 42 02 	lds	r31, 0x0242	; 0x800242 <INT0_Fptr+0x1>
    1248:	30 97       	sbiw	r30, 0x00	; 0
    124a:	09 f0       	breq	.+2      	; 0x124e <__vector_1+0x30>
    124c:	09 95       	icall
    124e:	ff 91       	pop	r31
    1250:	ef 91       	pop	r30
    1252:	bf 91       	pop	r27
    1254:	af 91       	pop	r26
    1256:	9f 91       	pop	r25
    1258:	8f 91       	pop	r24
    125a:	7f 91       	pop	r23
    125c:	6f 91       	pop	r22
    125e:	5f 91       	pop	r21
    1260:	4f 91       	pop	r20
    1262:	3f 91       	pop	r19
    1264:	2f 91       	pop	r18
    1266:	0f 90       	pop	r0
    1268:	0f be       	out	0x3f, r0	; 63
    126a:	0f 90       	pop	r0
    126c:	1f 90       	pop	r1
    126e:	18 95       	reti

00001270 <__vector_2>:
    1270:	78 94       	sei
    1272:	1f 92       	push	r1
    1274:	0f 92       	push	r0
    1276:	0f b6       	in	r0, 0x3f	; 63
    1278:	0f 92       	push	r0
    127a:	11 24       	eor	r1, r1
    127c:	2f 93       	push	r18
    127e:	3f 93       	push	r19
    1280:	4f 93       	push	r20
    1282:	5f 93       	push	r21
    1284:	6f 93       	push	r22
    1286:	7f 93       	push	r23
    1288:	8f 93       	push	r24
    128a:	9f 93       	push	r25
    128c:	af 93       	push	r26
    128e:	bf 93       	push	r27
    1290:	ef 93       	push	r30
    1292:	ff 93       	push	r31
    1294:	e0 91 3f 02 	lds	r30, 0x023F	; 0x80023f <INT1_Fptr>
    1298:	f0 91 40 02 	lds	r31, 0x0240	; 0x800240 <INT1_Fptr+0x1>
    129c:	30 97       	sbiw	r30, 0x00	; 0
    129e:	09 f0       	breq	.+2      	; 0x12a2 <__vector_2+0x32>
    12a0:	09 95       	icall
    12a2:	ff 91       	pop	r31
    12a4:	ef 91       	pop	r30
    12a6:	bf 91       	pop	r27
    12a8:	af 91       	pop	r26
    12aa:	9f 91       	pop	r25
    12ac:	8f 91       	pop	r24
    12ae:	7f 91       	pop	r23
    12b0:	6f 91       	pop	r22
    12b2:	5f 91       	pop	r21
    12b4:	4f 91       	pop	r20
    12b6:	3f 91       	pop	r19
    12b8:	2f 91       	pop	r18
    12ba:	0f 90       	pop	r0
    12bc:	0f be       	out	0x3f, r0	; 63
    12be:	0f 90       	pop	r0
    12c0:	1f 90       	pop	r1
    12c2:	18 95       	reti

000012c4 <__vector_3>:
    12c4:	1f 92       	push	r1
    12c6:	0f 92       	push	r0
    12c8:	0f b6       	in	r0, 0x3f	; 63
    12ca:	0f 92       	push	r0
    12cc:	11 24       	eor	r1, r1
    12ce:	2f 93       	push	r18
    12d0:	3f 93       	push	r19
    12d2:	4f 93       	push	r20
    12d4:	5f 93       	push	r21
    12d6:	6f 93       	push	r22
    12d8:	7f 93       	push	r23
    12da:	8f 93       	push	r24
    12dc:	9f 93       	push	r25
    12de:	af 93       	push	r26
    12e0:	bf 93       	push	r27
    12e2:	ef 93       	push	r30
    12e4:	ff 93       	push	r31
    12e6:	e0 91 3d 02 	lds	r30, 0x023D	; 0x80023d <INT2_Fptr>
    12ea:	f0 91 3e 02 	lds	r31, 0x023E	; 0x80023e <INT2_Fptr+0x1>
    12ee:	30 97       	sbiw	r30, 0x00	; 0
    12f0:	09 f0       	breq	.+2      	; 0x12f4 <__vector_3+0x30>
    12f2:	09 95       	icall
    12f4:	ff 91       	pop	r31
    12f6:	ef 91       	pop	r30
    12f8:	bf 91       	pop	r27
    12fa:	af 91       	pop	r26
    12fc:	9f 91       	pop	r25
    12fe:	8f 91       	pop	r24
    1300:	7f 91       	pop	r23
    1302:	6f 91       	pop	r22
    1304:	5f 91       	pop	r21
    1306:	4f 91       	pop	r20
    1308:	3f 91       	pop	r19
    130a:	2f 91       	pop	r18
    130c:	0f 90       	pop	r0
    130e:	0f be       	out	0x3f, r0	; 63
    1310:	0f 90       	pop	r0
    1312:	1f 90       	pop	r1
    1314:	18 95       	reti

00001316 <__vector_12>:
    1316:	1f 92       	push	r1
    1318:	0f 92       	push	r0
    131a:	0f b6       	in	r0, 0x3f	; 63
    131c:	0f 92       	push	r0
    131e:	11 24       	eor	r1, r1
    1320:	2f 93       	push	r18
    1322:	3f 93       	push	r19
    1324:	4f 93       	push	r20
    1326:	5f 93       	push	r21
    1328:	6f 93       	push	r22
    132a:	7f 93       	push	r23
    132c:	8f 93       	push	r24
    132e:	9f 93       	push	r25
    1330:	af 93       	push	r26
    1332:	bf 93       	push	r27
    1334:	ef 93       	push	r30
    1336:	ff 93       	push	r31
    1338:	e0 91 43 02 	lds	r30, 0x0243	; 0x800243 <PF>
    133c:	f0 91 44 02 	lds	r31, 0x0244	; 0x800244 <PF+0x1>
    1340:	30 97       	sbiw	r30, 0x00	; 0
    1342:	09 f0       	breq	.+2      	; 0x1346 <__vector_12+0x30>
    1344:	09 95       	icall
    1346:	ff 91       	pop	r31
    1348:	ef 91       	pop	r30
    134a:	bf 91       	pop	r27
    134c:	af 91       	pop	r26
    134e:	9f 91       	pop	r25
    1350:	8f 91       	pop	r24
    1352:	7f 91       	pop	r23
    1354:	6f 91       	pop	r22
    1356:	5f 91       	pop	r21
    1358:	4f 91       	pop	r20
    135a:	3f 91       	pop	r19
    135c:	2f 91       	pop	r18
    135e:	0f 90       	pop	r0
    1360:	0f be       	out	0x3f, r0	; 63
    1362:	0f 90       	pop	r0
    1364:	1f 90       	pop	r1
    1366:	18 95       	reti

00001368 <TIMER0_Init>:
    1368:	81 30       	cpi	r24, 0x01	; 1
    136a:	59 f0       	breq	.+22     	; 0x1382 <TIMER0_Init+0x1a>
    136c:	38 f0       	brcs	.+14     	; 0x137c <TIMER0_Init+0x14>
    136e:	82 30       	cpi	r24, 0x02	; 2
    1370:	71 f0       	breq	.+28     	; 0x138e <TIMER0_Init+0x26>
    1372:	83 30       	cpi	r24, 0x03	; 3
    1374:	91 f4       	brne	.+36     	; 0x139a <TIMER0_Init+0x32>
    1376:	83 b7       	in	r24, 0x33	; 51
    1378:	80 64       	ori	r24, 0x40	; 64
    137a:	0b c0       	rjmp	.+22     	; 0x1392 <TIMER0_Init+0x2a>
    137c:	83 b7       	in	r24, 0x33	; 51
    137e:	8f 7b       	andi	r24, 0xBF	; 191
    1380:	02 c0       	rjmp	.+4      	; 0x1386 <TIMER0_Init+0x1e>
    1382:	83 b7       	in	r24, 0x33	; 51
    1384:	80 64       	ori	r24, 0x40	; 64
    1386:	83 bf       	out	0x33, r24	; 51
    1388:	83 b7       	in	r24, 0x33	; 51
    138a:	87 7f       	andi	r24, 0xF7	; 247
    138c:	05 c0       	rjmp	.+10     	; 0x1398 <TIMER0_Init+0x30>
    138e:	83 b7       	in	r24, 0x33	; 51
    1390:	8f 7b       	andi	r24, 0xBF	; 191
    1392:	83 bf       	out	0x33, r24	; 51
    1394:	83 b7       	in	r24, 0x33	; 51
    1396:	88 60       	ori	r24, 0x08	; 8
    1398:	83 bf       	out	0x33, r24	; 51
    139a:	83 b7       	in	r24, 0x33	; 51
    139c:	88 7f       	andi	r24, 0xF8	; 248
    139e:	83 bf       	out	0x33, r24	; 51
    13a0:	83 b7       	in	r24, 0x33	; 51
    13a2:	68 2b       	or	r22, r24
    13a4:	63 bf       	out	0x33, r22	; 51
    13a6:	08 95       	ret

000013a8 <TIMER0_OC0Mode>:
    13a8:	81 30       	cpi	r24, 0x01	; 1
    13aa:	49 f0       	breq	.+18     	; 0x13be <TIMER0_OC0Mode+0x16>
    13ac:	28 f0       	brcs	.+10     	; 0x13b8 <TIMER0_OC0Mode+0x10>
    13ae:	82 30       	cpi	r24, 0x02	; 2
    13b0:	61 f0       	breq	.+24     	; 0x13ca <TIMER0_OC0Mode+0x22>
    13b2:	83 30       	cpi	r24, 0x03	; 3
    13b4:	69 f0       	breq	.+26     	; 0x13d0 <TIMER0_OC0Mode+0x28>
    13b6:	08 95       	ret
    13b8:	83 b7       	in	r24, 0x33	; 51
    13ba:	8f 7e       	andi	r24, 0xEF	; 239
    13bc:	02 c0       	rjmp	.+4      	; 0x13c2 <TIMER0_OC0Mode+0x1a>
    13be:	83 b7       	in	r24, 0x33	; 51
    13c0:	80 61       	ori	r24, 0x10	; 16
    13c2:	83 bf       	out	0x33, r24	; 51
    13c4:	83 b7       	in	r24, 0x33	; 51
    13c6:	8f 7d       	andi	r24, 0xDF	; 223
    13c8:	08 c0       	rjmp	.+16     	; 0x13da <TIMER0_OC0Mode+0x32>
    13ca:	83 b7       	in	r24, 0x33	; 51
    13cc:	8f 7e       	andi	r24, 0xEF	; 239
    13ce:	02 c0       	rjmp	.+4      	; 0x13d4 <TIMER0_OC0Mode+0x2c>
    13d0:	83 b7       	in	r24, 0x33	; 51
    13d2:	80 61       	ori	r24, 0x10	; 16
    13d4:	83 bf       	out	0x33, r24	; 51
    13d6:	83 b7       	in	r24, 0x33	; 51
    13d8:	80 62       	ori	r24, 0x20	; 32
    13da:	83 bf       	out	0x33, r24	; 51
    13dc:	08 95       	ret

000013de <__vector_11>:
    13de:	1f 92       	push	r1
    13e0:	0f 92       	push	r0
    13e2:	0f b6       	in	r0, 0x3f	; 63
    13e4:	0f 92       	push	r0
    13e6:	11 24       	eor	r1, r1
    13e8:	2f 93       	push	r18
    13ea:	3f 93       	push	r19
    13ec:	4f 93       	push	r20
    13ee:	5f 93       	push	r21
    13f0:	6f 93       	push	r22
    13f2:	7f 93       	push	r23
    13f4:	8f 93       	push	r24
    13f6:	9f 93       	push	r25
    13f8:	af 93       	push	r26
    13fa:	bf 93       	push	r27
    13fc:	ef 93       	push	r30
    13fe:	ff 93       	push	r31
    1400:	e0 91 4b 02 	lds	r30, 0x024B	; 0x80024b <Timer0_OVF_Fptr>
    1404:	f0 91 4c 02 	lds	r31, 0x024C	; 0x80024c <Timer0_OVF_Fptr+0x1>
    1408:	30 97       	sbiw	r30, 0x00	; 0
    140a:	09 f0       	breq	.+2      	; 0x140e <__vector_11+0x30>
    140c:	09 95       	icall
    140e:	ff 91       	pop	r31
    1410:	ef 91       	pop	r30
    1412:	bf 91       	pop	r27
    1414:	af 91       	pop	r26
    1416:	9f 91       	pop	r25
    1418:	8f 91       	pop	r24
    141a:	7f 91       	pop	r23
    141c:	6f 91       	pop	r22
    141e:	5f 91       	pop	r21
    1420:	4f 91       	pop	r20
    1422:	3f 91       	pop	r19
    1424:	2f 91       	pop	r18
    1426:	0f 90       	pop	r0
    1428:	0f be       	out	0x3f, r0	; 63
    142a:	0f 90       	pop	r0
    142c:	1f 90       	pop	r1
    142e:	18 95       	reti

00001430 <__vector_10>:
    1430:	1f 92       	push	r1
    1432:	0f 92       	push	r0
    1434:	0f b6       	in	r0, 0x3f	; 63
    1436:	0f 92       	push	r0
    1438:	11 24       	eor	r1, r1
    143a:	2f 93       	push	r18
    143c:	3f 93       	push	r19
    143e:	4f 93       	push	r20
    1440:	5f 93       	push	r21
    1442:	6f 93       	push	r22
    1444:	7f 93       	push	r23
    1446:	8f 93       	push	r24
    1448:	9f 93       	push	r25
    144a:	af 93       	push	r26
    144c:	bf 93       	push	r27
    144e:	ef 93       	push	r30
    1450:	ff 93       	push	r31
    1452:	e0 91 4d 02 	lds	r30, 0x024D	; 0x80024d <timer0_OC_fPtr>
    1456:	f0 91 4e 02 	lds	r31, 0x024E	; 0x80024e <timer0_OC_fPtr+0x1>
    145a:	30 97       	sbiw	r30, 0x00	; 0
    145c:	09 f0       	breq	.+2      	; 0x1460 <__vector_10+0x30>
    145e:	09 95       	icall
    1460:	ff 91       	pop	r31
    1462:	ef 91       	pop	r30
    1464:	bf 91       	pop	r27
    1466:	af 91       	pop	r26
    1468:	9f 91       	pop	r25
    146a:	8f 91       	pop	r24
    146c:	7f 91       	pop	r23
    146e:	6f 91       	pop	r22
    1470:	5f 91       	pop	r21
    1472:	4f 91       	pop	r20
    1474:	3f 91       	pop	r19
    1476:	2f 91       	pop	r18
    1478:	0f 90       	pop	r0
    147a:	0f be       	out	0x3f, r0	; 63
    147c:	0f 90       	pop	r0
    147e:	1f 90       	pop	r1
    1480:	18 95       	reti

00001482 <Timer1_Init>:
    1482:	90 e0       	ldi	r25, 0x00	; 0
    1484:	87 30       	cpi	r24, 0x07	; 7
    1486:	91 05       	cpc	r25, r1
    1488:	a8 f5       	brcc	.+106    	; 0x14f4 <Timer1_Init+0x72>
    148a:	fc 01       	movw	r30, r24
    148c:	e6 5d       	subi	r30, 0xD6	; 214
    148e:	ff 4f       	sbci	r31, 0xFF	; 255
    1490:	8f b5       	in	r24, 0x2f	; 47
    1492:	0c 94 a0 0d 	jmp	0x1b40	; 0x1b40 <__tablejump2__>
    1496:	8e 7f       	andi	r24, 0xFE	; 254
    1498:	8f bd       	out	0x2f, r24	; 47
    149a:	8f b5       	in	r24, 0x2f	; 47
    149c:	8d 7f       	andi	r24, 0xFD	; 253
    149e:	8f bd       	out	0x2f, r24	; 47
    14a0:	8e b5       	in	r24, 0x2e	; 46
    14a2:	87 7f       	andi	r24, 0xF7	; 247
    14a4:	0c c0       	rjmp	.+24     	; 0x14be <Timer1_Init+0x3c>
    14a6:	8e 7f       	andi	r24, 0xFE	; 254
    14a8:	8f bd       	out	0x2f, r24	; 47
    14aa:	8f b5       	in	r24, 0x2f	; 47
    14ac:	8d 7f       	andi	r24, 0xFD	; 253
    14ae:	1b c0       	rjmp	.+54     	; 0x14e6 <Timer1_Init+0x64>
    14b0:	8e 7f       	andi	r24, 0xFE	; 254
    14b2:	8f bd       	out	0x2f, r24	; 47
    14b4:	8f b5       	in	r24, 0x2f	; 47
    14b6:	8d 7f       	andi	r24, 0xFD	; 253
    14b8:	8f bd       	out	0x2f, r24	; 47
    14ba:	8e b5       	in	r24, 0x2e	; 46
    14bc:	88 60       	ori	r24, 0x08	; 8
    14be:	8e bd       	out	0x2e, r24	; 46
    14c0:	8e b5       	in	r24, 0x2e	; 46
    14c2:	8f 7e       	andi	r24, 0xEF	; 239
    14c4:	16 c0       	rjmp	.+44     	; 0x14f2 <Timer1_Init+0x70>
    14c6:	8e 7f       	andi	r24, 0xFE	; 254
    14c8:	01 c0       	rjmp	.+2      	; 0x14cc <Timer1_Init+0x4a>
    14ca:	81 60       	ori	r24, 0x01	; 1
    14cc:	8f bd       	out	0x2f, r24	; 47
    14ce:	8f b5       	in	r24, 0x2f	; 47
    14d0:	8d 7f       	andi	r24, 0xFD	; 253
    14d2:	8f bd       	out	0x2f, r24	; 47
    14d4:	8e b5       	in	r24, 0x2e	; 46
    14d6:	87 7f       	andi	r24, 0xF7	; 247
    14d8:	09 c0       	rjmp	.+18     	; 0x14ec <Timer1_Init+0x6a>
    14da:	8e 7f       	andi	r24, 0xFE	; 254
    14dc:	01 c0       	rjmp	.+2      	; 0x14e0 <Timer1_Init+0x5e>
    14de:	81 60       	ori	r24, 0x01	; 1
    14e0:	8f bd       	out	0x2f, r24	; 47
    14e2:	8f b5       	in	r24, 0x2f	; 47
    14e4:	82 60       	ori	r24, 0x02	; 2
    14e6:	8f bd       	out	0x2f, r24	; 47
    14e8:	8e b5       	in	r24, 0x2e	; 46
    14ea:	88 60       	ori	r24, 0x08	; 8
    14ec:	8e bd       	out	0x2e, r24	; 46
    14ee:	8e b5       	in	r24, 0x2e	; 46
    14f0:	80 61       	ori	r24, 0x10	; 16
    14f2:	8e bd       	out	0x2e, r24	; 46
    14f4:	8e b5       	in	r24, 0x2e	; 46
    14f6:	88 7f       	andi	r24, 0xF8	; 248
    14f8:	8e bd       	out	0x2e, r24	; 46
    14fa:	8e b5       	in	r24, 0x2e	; 46
    14fc:	68 2b       	or	r22, r24
    14fe:	6e bd       	out	0x2e, r22	; 46
    1500:	08 95       	ret

00001502 <Timer1_OCRA1Mode>:
    1502:	81 30       	cpi	r24, 0x01	; 1
    1504:	49 f0       	breq	.+18     	; 0x1518 <Timer1_OCRA1Mode+0x16>
    1506:	28 f0       	brcs	.+10     	; 0x1512 <Timer1_OCRA1Mode+0x10>
    1508:	82 30       	cpi	r24, 0x02	; 2
    150a:	61 f0       	breq	.+24     	; 0x1524 <Timer1_OCRA1Mode+0x22>
    150c:	83 30       	cpi	r24, 0x03	; 3
    150e:	69 f0       	breq	.+26     	; 0x152a <Timer1_OCRA1Mode+0x28>
    1510:	08 95       	ret
    1512:	8f b5       	in	r24, 0x2f	; 47
    1514:	8f 7b       	andi	r24, 0xBF	; 191
    1516:	02 c0       	rjmp	.+4      	; 0x151c <Timer1_OCRA1Mode+0x1a>
    1518:	8f b5       	in	r24, 0x2f	; 47
    151a:	80 64       	ori	r24, 0x40	; 64
    151c:	8f bd       	out	0x2f, r24	; 47
    151e:	8f b5       	in	r24, 0x2f	; 47
    1520:	8f 77       	andi	r24, 0x7F	; 127
    1522:	08 c0       	rjmp	.+16     	; 0x1534 <Timer1_OCRA1Mode+0x32>
    1524:	8f b5       	in	r24, 0x2f	; 47
    1526:	8f 7b       	andi	r24, 0xBF	; 191
    1528:	02 c0       	rjmp	.+4      	; 0x152e <Timer1_OCRA1Mode+0x2c>
    152a:	8f b5       	in	r24, 0x2f	; 47
    152c:	80 64       	ori	r24, 0x40	; 64
    152e:	8f bd       	out	0x2f, r24	; 47
    1530:	8f b5       	in	r24, 0x2f	; 47
    1532:	80 68       	ori	r24, 0x80	; 128
    1534:	8f bd       	out	0x2f, r24	; 47
    1536:	08 95       	ret

00001538 <Timer1_OCRB1Mode>:
    1538:	81 30       	cpi	r24, 0x01	; 1
    153a:	49 f0       	breq	.+18     	; 0x154e <Timer1_OCRB1Mode+0x16>
    153c:	28 f0       	brcs	.+10     	; 0x1548 <Timer1_OCRB1Mode+0x10>
    153e:	82 30       	cpi	r24, 0x02	; 2
    1540:	61 f0       	breq	.+24     	; 0x155a <Timer1_OCRB1Mode+0x22>
    1542:	83 30       	cpi	r24, 0x03	; 3
    1544:	69 f0       	breq	.+26     	; 0x1560 <Timer1_OCRB1Mode+0x28>
    1546:	08 95       	ret
    1548:	8f b5       	in	r24, 0x2f	; 47
    154a:	8f 7e       	andi	r24, 0xEF	; 239
    154c:	02 c0       	rjmp	.+4      	; 0x1552 <Timer1_OCRB1Mode+0x1a>
    154e:	8f b5       	in	r24, 0x2f	; 47
    1550:	80 61       	ori	r24, 0x10	; 16
    1552:	8f bd       	out	0x2f, r24	; 47
    1554:	8f b5       	in	r24, 0x2f	; 47
    1556:	8f 7d       	andi	r24, 0xDF	; 223
    1558:	08 c0       	rjmp	.+16     	; 0x156a <Timer1_OCRB1Mode+0x32>
    155a:	8f b5       	in	r24, 0x2f	; 47
    155c:	8f 7e       	andi	r24, 0xEF	; 239
    155e:	02 c0       	rjmp	.+4      	; 0x1564 <Timer1_OCRB1Mode+0x2c>
    1560:	8f b5       	in	r24, 0x2f	; 47
    1562:	80 61       	ori	r24, 0x10	; 16
    1564:	8f bd       	out	0x2f, r24	; 47
    1566:	8f b5       	in	r24, 0x2f	; 47
    1568:	80 62       	ori	r24, 0x20	; 32
    156a:	8f bd       	out	0x2f, r24	; 47
    156c:	08 95       	ret

0000156e <__vector_9>:
    156e:	1f 92       	push	r1
    1570:	0f 92       	push	r0
    1572:	0f b6       	in	r0, 0x3f	; 63
    1574:	0f 92       	push	r0
    1576:	11 24       	eor	r1, r1
    1578:	2f 93       	push	r18
    157a:	3f 93       	push	r19
    157c:	4f 93       	push	r20
    157e:	5f 93       	push	r21
    1580:	6f 93       	push	r22
    1582:	7f 93       	push	r23
    1584:	8f 93       	push	r24
    1586:	9f 93       	push	r25
    1588:	af 93       	push	r26
    158a:	bf 93       	push	r27
    158c:	ef 93       	push	r30
    158e:	ff 93       	push	r31
    1590:	e0 91 4f 02 	lds	r30, 0x024F	; 0x80024f <Timer1_OVF_Fptr>
    1594:	f0 91 50 02 	lds	r31, 0x0250	; 0x800250 <Timer1_OVF_Fptr+0x1>
    1598:	30 97       	sbiw	r30, 0x00	; 0
    159a:	09 f0       	breq	.+2      	; 0x159e <__vector_9+0x30>
    159c:	09 95       	icall
    159e:	ff 91       	pop	r31
    15a0:	ef 91       	pop	r30
    15a2:	bf 91       	pop	r27
    15a4:	af 91       	pop	r26
    15a6:	9f 91       	pop	r25
    15a8:	8f 91       	pop	r24
    15aa:	7f 91       	pop	r23
    15ac:	6f 91       	pop	r22
    15ae:	5f 91       	pop	r21
    15b0:	4f 91       	pop	r20
    15b2:	3f 91       	pop	r19
    15b4:	2f 91       	pop	r18
    15b6:	0f 90       	pop	r0
    15b8:	0f be       	out	0x3f, r0	; 63
    15ba:	0f 90       	pop	r0
    15bc:	1f 90       	pop	r1
    15be:	18 95       	reti

000015c0 <__vector_7>:
    15c0:	1f 92       	push	r1
    15c2:	0f 92       	push	r0
    15c4:	0f b6       	in	r0, 0x3f	; 63
    15c6:	0f 92       	push	r0
    15c8:	11 24       	eor	r1, r1
    15ca:	2f 93       	push	r18
    15cc:	3f 93       	push	r19
    15ce:	4f 93       	push	r20
    15d0:	5f 93       	push	r21
    15d2:	6f 93       	push	r22
    15d4:	7f 93       	push	r23
    15d6:	8f 93       	push	r24
    15d8:	9f 93       	push	r25
    15da:	af 93       	push	r26
    15dc:	bf 93       	push	r27
    15de:	ef 93       	push	r30
    15e0:	ff 93       	push	r31
    15e2:	e0 91 49 02 	lds	r30, 0x0249	; 0x800249 <Timer1_OCA_Fptr>
    15e6:	f0 91 4a 02 	lds	r31, 0x024A	; 0x80024a <Timer1_OCA_Fptr+0x1>
    15ea:	30 97       	sbiw	r30, 0x00	; 0
    15ec:	09 f0       	breq	.+2      	; 0x15f0 <__vector_7+0x30>
    15ee:	09 95       	icall
    15f0:	ff 91       	pop	r31
    15f2:	ef 91       	pop	r30
    15f4:	bf 91       	pop	r27
    15f6:	af 91       	pop	r26
    15f8:	9f 91       	pop	r25
    15fa:	8f 91       	pop	r24
    15fc:	7f 91       	pop	r23
    15fe:	6f 91       	pop	r22
    1600:	5f 91       	pop	r21
    1602:	4f 91       	pop	r20
    1604:	3f 91       	pop	r19
    1606:	2f 91       	pop	r18
    1608:	0f 90       	pop	r0
    160a:	0f be       	out	0x3f, r0	; 63
    160c:	0f 90       	pop	r0
    160e:	1f 90       	pop	r1
    1610:	18 95       	reti

00001612 <__vector_8>:
    1612:	1f 92       	push	r1
    1614:	0f 92       	push	r0
    1616:	0f b6       	in	r0, 0x3f	; 63
    1618:	0f 92       	push	r0
    161a:	11 24       	eor	r1, r1
    161c:	2f 93       	push	r18
    161e:	3f 93       	push	r19
    1620:	4f 93       	push	r20
    1622:	5f 93       	push	r21
    1624:	6f 93       	push	r22
    1626:	7f 93       	push	r23
    1628:	8f 93       	push	r24
    162a:	9f 93       	push	r25
    162c:	af 93       	push	r26
    162e:	bf 93       	push	r27
    1630:	ef 93       	push	r30
    1632:	ff 93       	push	r31
    1634:	e0 91 47 02 	lds	r30, 0x0247	; 0x800247 <Timer1_OCB_Fptr>
    1638:	f0 91 48 02 	lds	r31, 0x0248	; 0x800248 <Timer1_OCB_Fptr+0x1>
    163c:	30 97       	sbiw	r30, 0x00	; 0
    163e:	09 f0       	breq	.+2      	; 0x1642 <__vector_8+0x30>
    1640:	09 95       	icall
    1642:	ff 91       	pop	r31
    1644:	ef 91       	pop	r30
    1646:	bf 91       	pop	r27
    1648:	af 91       	pop	r26
    164a:	9f 91       	pop	r25
    164c:	8f 91       	pop	r24
    164e:	7f 91       	pop	r23
    1650:	6f 91       	pop	r22
    1652:	5f 91       	pop	r21
    1654:	4f 91       	pop	r20
    1656:	3f 91       	pop	r19
    1658:	2f 91       	pop	r18
    165a:	0f 90       	pop	r0
    165c:	0f be       	out	0x3f, r0	; 63
    165e:	0f 90       	pop	r0
    1660:	1f 90       	pop	r1
    1662:	18 95       	reti

00001664 <__vector_6>:
    1664:	1f 92       	push	r1
    1666:	0f 92       	push	r0
    1668:	0f b6       	in	r0, 0x3f	; 63
    166a:	0f 92       	push	r0
    166c:	11 24       	eor	r1, r1
    166e:	2f 93       	push	r18
    1670:	3f 93       	push	r19
    1672:	4f 93       	push	r20
    1674:	5f 93       	push	r21
    1676:	6f 93       	push	r22
    1678:	7f 93       	push	r23
    167a:	8f 93       	push	r24
    167c:	9f 93       	push	r25
    167e:	af 93       	push	r26
    1680:	bf 93       	push	r27
    1682:	ef 93       	push	r30
    1684:	ff 93       	push	r31
    1686:	e0 91 45 02 	lds	r30, 0x0245	; 0x800245 <Timer1_ICU_Fptr>
    168a:	f0 91 46 02 	lds	r31, 0x0246	; 0x800246 <Timer1_ICU_Fptr+0x1>
    168e:	30 97       	sbiw	r30, 0x00	; 0
    1690:	09 f0       	breq	.+2      	; 0x1694 <__vector_6+0x30>
    1692:	09 95       	icall
    1694:	ff 91       	pop	r31
    1696:	ef 91       	pop	r30
    1698:	bf 91       	pop	r27
    169a:	af 91       	pop	r26
    169c:	9f 91       	pop	r25
    169e:	8f 91       	pop	r24
    16a0:	7f 91       	pop	r23
    16a2:	6f 91       	pop	r22
    16a4:	5f 91       	pop	r21
    16a6:	4f 91       	pop	r20
    16a8:	3f 91       	pop	r19
    16aa:	2f 91       	pop	r18
    16ac:	0f 90       	pop	r0
    16ae:	0f be       	out	0x3f, r0	; 63
    16b0:	0f 90       	pop	r0
    16b2:	1f 90       	pop	r1
    16b4:	18 95       	reti

000016b6 <UART_Init>:
    16b6:	83 e3       	ldi	r24, 0x33	; 51
    16b8:	89 b9       	out	0x09, r24	; 9
    16ba:	59 98       	cbi	0x0b, 1	; 11
    16bc:	53 9a       	sbi	0x0a, 3	; 10
    16be:	54 9a       	sbi	0x0a, 4	; 10
    16c0:	08 95       	ret

000016c2 <UART_SendNoBlock>:
    16c2:	8c b9       	out	0x0c, r24	; 12
    16c4:	08 95       	ret

000016c6 <UART_ReceiveNoBlock>:
    16c6:	8c b1       	in	r24, 0x0c	; 12
    16c8:	08 95       	ret

000016ca <UART_RX_InterruptEnable>:
    16ca:	57 9a       	sbi	0x0a, 7	; 10
    16cc:	08 95       	ret

000016ce <UART_TX_InterruptEnable>:
    16ce:	56 9a       	sbi	0x0a, 6	; 10
    16d0:	08 95       	ret

000016d2 <UART_RX_SetCallBack>:
    16d2:	90 93 54 02 	sts	0x0254, r25	; 0x800254 <UART_RX_Fptr+0x1>
    16d6:	80 93 53 02 	sts	0x0253, r24	; 0x800253 <UART_RX_Fptr>
    16da:	08 95       	ret

000016dc <UART_TX_SetCallBack>:
    16dc:	90 93 52 02 	sts	0x0252, r25	; 0x800252 <UART_TX_Fptr+0x1>
    16e0:	80 93 51 02 	sts	0x0251, r24	; 0x800251 <UART_TX_Fptr>
    16e4:	08 95       	ret

000016e6 <__vector_13>:
    16e6:	1f 92       	push	r1
    16e8:	0f 92       	push	r0
    16ea:	0f b6       	in	r0, 0x3f	; 63
    16ec:	0f 92       	push	r0
    16ee:	11 24       	eor	r1, r1
    16f0:	2f 93       	push	r18
    16f2:	3f 93       	push	r19
    16f4:	4f 93       	push	r20
    16f6:	5f 93       	push	r21
    16f8:	6f 93       	push	r22
    16fa:	7f 93       	push	r23
    16fc:	8f 93       	push	r24
    16fe:	9f 93       	push	r25
    1700:	af 93       	push	r26
    1702:	bf 93       	push	r27
    1704:	ef 93       	push	r30
    1706:	ff 93       	push	r31
    1708:	e0 91 53 02 	lds	r30, 0x0253	; 0x800253 <UART_RX_Fptr>
    170c:	f0 91 54 02 	lds	r31, 0x0254	; 0x800254 <UART_RX_Fptr+0x1>
    1710:	30 97       	sbiw	r30, 0x00	; 0
    1712:	09 f0       	breq	.+2      	; 0x1716 <__vector_13+0x30>
    1714:	09 95       	icall
    1716:	ff 91       	pop	r31
    1718:	ef 91       	pop	r30
    171a:	bf 91       	pop	r27
    171c:	af 91       	pop	r26
    171e:	9f 91       	pop	r25
    1720:	8f 91       	pop	r24
    1722:	7f 91       	pop	r23
    1724:	6f 91       	pop	r22
    1726:	5f 91       	pop	r21
    1728:	4f 91       	pop	r20
    172a:	3f 91       	pop	r19
    172c:	2f 91       	pop	r18
    172e:	0f 90       	pop	r0
    1730:	0f be       	out	0x3f, r0	; 63
    1732:	0f 90       	pop	r0
    1734:	1f 90       	pop	r1
    1736:	18 95       	reti

00001738 <__vector_15>:
    1738:	1f 92       	push	r1
    173a:	0f 92       	push	r0
    173c:	0f b6       	in	r0, 0x3f	; 63
    173e:	0f 92       	push	r0
    1740:	11 24       	eor	r1, r1
    1742:	2f 93       	push	r18
    1744:	3f 93       	push	r19
    1746:	4f 93       	push	r20
    1748:	5f 93       	push	r21
    174a:	6f 93       	push	r22
    174c:	7f 93       	push	r23
    174e:	8f 93       	push	r24
    1750:	9f 93       	push	r25
    1752:	af 93       	push	r26
    1754:	bf 93       	push	r27
    1756:	ef 93       	push	r30
    1758:	ff 93       	push	r31
    175a:	e0 91 51 02 	lds	r30, 0x0251	; 0x800251 <UART_TX_Fptr>
    175e:	f0 91 52 02 	lds	r31, 0x0252	; 0x800252 <UART_TX_Fptr+0x1>
    1762:	30 97       	sbiw	r30, 0x00	; 0
    1764:	09 f0       	breq	.+2      	; 0x1768 <__vector_15+0x30>
    1766:	09 95       	icall
    1768:	ff 91       	pop	r31
    176a:	ef 91       	pop	r30
    176c:	bf 91       	pop	r27
    176e:	af 91       	pop	r26
    1770:	9f 91       	pop	r25
    1772:	8f 91       	pop	r24
    1774:	7f 91       	pop	r23
    1776:	6f 91       	pop	r22
    1778:	5f 91       	pop	r21
    177a:	4f 91       	pop	r20
    177c:	3f 91       	pop	r19
    177e:	2f 91       	pop	r18
    1780:	0f 90       	pop	r0
    1782:	0f be       	out	0x3f, r0	; 63
    1784:	0f 90       	pop	r0
    1786:	1f 90       	pop	r1
    1788:	18 95       	reti

0000178a <WDT_Reset>:
    178a:	f8 94       	cli
    178c:	98 e1       	ldi	r25, 0x18	; 24
    178e:	91 bd       	out	0x21, r25	; 33
    1790:	11 bc       	out	0x21, r1	; 33
    1792:	78 94       	sei
    1794:	88 60       	ori	r24, 0x08	; 8
    1796:	f8 94       	cli
    1798:	91 b5       	in	r25, 0x21	; 33
    179a:	98 61       	ori	r25, 0x18	; 24
    179c:	91 bd       	out	0x21, r25	; 33
    179e:	81 bd       	out	0x21, r24	; 33
    17a0:	78 94       	sei
    17a2:	08 95       	ret

000017a4 <PWM_Duty_TIMER0>:
    17a4:	85 36       	cpi	r24, 0x65	; 101
    17a6:	91 05       	cpc	r25, r1
    17a8:	98 f4       	brcc	.+38     	; 0x17d0 <PWM_Duty_TIMER0+0x2c>
    17aa:	a0 e0       	ldi	r26, 0x00	; 0
    17ac:	b0 e0       	ldi	r27, 0x00	; 0
    17ae:	66 27       	eor	r22, r22
    17b0:	78 2f       	mov	r23, r24
    17b2:	89 2f       	mov	r24, r25
    17b4:	9a 2f       	mov	r25, r26
    17b6:	24 e6       	ldi	r18, 0x64	; 100
    17b8:	30 e0       	ldi	r19, 0x00	; 0
    17ba:	40 e0       	ldi	r20, 0x00	; 0
    17bc:	50 e0       	ldi	r21, 0x00	; 0
    17be:	0e 94 5f 0d 	call	0x1abe	; 0x1abe <__udivmodsi4>
    17c2:	22 30       	cpi	r18, 0x02	; 2
    17c4:	31 05       	cpc	r19, r1
    17c6:	18 f0       	brcs	.+6      	; 0x17ce <PWM_Duty_TIMER0+0x2a>
    17c8:	21 50       	subi	r18, 0x01	; 1
    17ca:	2c bf       	out	0x3c, r18	; 60
    17cc:	08 95       	ret
    17ce:	1c be       	out	0x3c, r1	; 60
    17d0:	08 95       	ret

000017d2 <RX_Func>:
    17d2:	cf 93       	push	r28
    17d4:	df 93       	push	r29
    17d6:	c0 91 56 02 	lds	r28, 0x0256	; 0x800256 <i>
    17da:	d0 e0       	ldi	r29, 0x00	; 0
    17dc:	0e 94 63 0b 	call	0x16c6	; 0x16c6 <UART_ReceiveNoBlock>
    17e0:	ce 54       	subi	r28, 0x4E	; 78
    17e2:	db 4f       	sbci	r29, 0xFB	; 251
    17e4:	88 83       	st	Y, r24
    17e6:	80 91 56 02 	lds	r24, 0x0256	; 0x800256 <i>
    17ea:	e8 2f       	mov	r30, r24
    17ec:	f0 e0       	ldi	r31, 0x00	; 0
    17ee:	ee 54       	subi	r30, 0x4E	; 78
    17f0:	fb 4f       	sbci	r31, 0xFB	; 251
    17f2:	90 81       	ld	r25, Z
    17f4:	9d 30       	cpi	r25, 0x0D	; 13
    17f6:	21 f4       	brne	.+8      	; 0x1800 <RX_Func+0x2e>
    17f8:	81 e0       	ldi	r24, 0x01	; 1
    17fa:	80 93 58 02 	sts	0x0258, r24	; 0x800258 <StrCompleteFlag>
    17fe:	08 c0       	rjmp	.+16     	; 0x1810 <RX_Func+0x3e>
    1800:	8f 5f       	subi	r24, 0xFF	; 255
    1802:	80 93 56 02 	sts	0x0256, r24	; 0x800256 <i>
    1806:	80 91 59 02 	lds	r24, 0x0259	; 0x800259 <Flag>
    180a:	8f 5f       	subi	r24, 0xFF	; 255
    180c:	80 93 59 02 	sts	0x0259, r24	; 0x800259 <Flag>
    1810:	df 91       	pop	r29
    1812:	cf 91       	pop	r28
    1814:	08 95       	ret

00001816 <TX_Func>:
    1816:	80 91 55 02 	lds	r24, 0x0255	; 0x800255 <Sec_ElementFlag.1822>
    181a:	81 30       	cpi	r24, 0x01	; 1
    181c:	39 f4       	brne	.+14     	; 0x182c <TX_Func+0x16>
    181e:	80 91 62 01 	lds	r24, 0x0162	; 0x800162 <x.1821>
    1822:	8f 5f       	subi	r24, 0xFF	; 255
    1824:	80 93 62 01 	sts	0x0162, r24	; 0x800162 <x.1821>
    1828:	10 92 55 02 	sts	0x0255, r1	; 0x800255 <Sec_ElementFlag.1822>
    182c:	e0 91 d0 04 	lds	r30, 0x04D0	; 0x8004d0 <Pop_index>
    1830:	2e 2f       	mov	r18, r30
    1832:	30 e0       	ldi	r19, 0x00	; 0
    1834:	d9 01       	movw	r26, r18
    1836:	aa 0f       	add	r26, r26
    1838:	bb 1f       	adc	r27, r27
    183a:	ae 52       	subi	r26, 0x2E	; 46
    183c:	bb 4f       	sbci	r27, 0xFB	; 251
    183e:	80 91 62 01 	lds	r24, 0x0162	; 0x800162 <x.1821>
    1842:	0d 90       	ld	r0, X+
    1844:	bc 91       	ld	r27, X
    1846:	a0 2d       	mov	r26, r0
    1848:	a8 0f       	add	r26, r24
    184a:	b1 1d       	adc	r27, r1
    184c:	8c 91       	ld	r24, X
    184e:	88 23       	and	r24, r24
    1850:	41 f0       	breq	.+16     	; 0x1862 <TX_Func+0x4c>
    1852:	0e 94 61 0b 	call	0x16c2	; 0x16c2 <UART_SendNoBlock>
    1856:	80 91 62 01 	lds	r24, 0x0162	; 0x800162 <x.1821>
    185a:	8f 5f       	subi	r24, 0xFF	; 255
    185c:	80 93 62 01 	sts	0x0162, r24	; 0x800162 <x.1821>
    1860:	08 95       	ret
    1862:	80 91 d1 04 	lds	r24, 0x04D1	; 0x8004d1 <SP>
    1866:	90 e0       	ldi	r25, 0x00	; 0
    1868:	01 97       	sbiw	r24, 0x01	; 1
    186a:	28 17       	cp	r18, r24
    186c:	39 07       	cpc	r19, r25
    186e:	a4 f4       	brge	.+40     	; 0x1898 <TX_Func+0x82>
    1870:	ef 5f       	subi	r30, 0xFF	; 255
    1872:	e0 93 d0 04 	sts	0x04D0, r30	; 0x8004d0 <Pop_index>
    1876:	10 92 62 01 	sts	0x0162, r1	; 0x800162 <x.1821>
    187a:	f0 e0       	ldi	r31, 0x00	; 0
    187c:	ee 0f       	add	r30, r30
    187e:	ff 1f       	adc	r31, r31
    1880:	ee 52       	subi	r30, 0x2E	; 46
    1882:	fb 4f       	sbci	r31, 0xFB	; 251
    1884:	01 90       	ld	r0, Z+
    1886:	f0 81       	ld	r31, Z
    1888:	e0 2d       	mov	r30, r0
    188a:	80 81       	ld	r24, Z
    188c:	0e 94 61 0b 	call	0x16c2	; 0x16c2 <UART_SendNoBlock>
    1890:	81 e0       	ldi	r24, 0x01	; 1
    1892:	80 93 55 02 	sts	0x0255, r24	; 0x800255 <Sec_ElementFlag.1822>
    1896:	08 95       	ret
    1898:	81 e0       	ldi	r24, 0x01	; 1
    189a:	80 93 62 01 	sts	0x0162, r24	; 0x800162 <x.1821>
    189e:	10 92 d0 04 	sts	0x04D0, r1	; 0x8004d0 <Pop_index>
    18a2:	10 92 d1 04 	sts	0x04D1, r1	; 0x8004d1 <SP>
    18a6:	08 95       	ret

000018a8 <UART_Service_Init>:
    18a8:	8b e0       	ldi	r24, 0x0B	; 11
    18aa:	9c e0       	ldi	r25, 0x0C	; 12
    18ac:	0e 94 6e 0b 	call	0x16dc	; 0x16dc <UART_TX_SetCallBack>
    18b0:	89 ee       	ldi	r24, 0xE9	; 233
    18b2:	9b e0       	ldi	r25, 0x0B	; 11
    18b4:	0e 94 69 0b 	call	0x16d2	; 0x16d2 <UART_RX_SetCallBack>
    18b8:	0e 94 67 0b 	call	0x16ce	; 0x16ce <UART_TX_InterruptEnable>
    18bc:	0c 94 65 0b 	jmp	0x16ca	; 0x16ca <UART_RX_InterruptEnable>

000018c0 <UART_PushData>:
    18c0:	cf 93       	push	r28
    18c2:	df 93       	push	r29
    18c4:	ec 01       	movw	r28, r24
    18c6:	90 91 57 02 	lds	r25, 0x0257	; 0x800257 <Stack_index>
    18ca:	94 31       	cpi	r25, 0x14	; 20
    18cc:	51 f0       	breq	.+20     	; 0x18e2 <UART_PushData+0x22>
    18ce:	40 e0       	ldi	r20, 0x00	; 0
    18d0:	e9 2f       	mov	r30, r25
    18d2:	f0 e0       	ldi	r31, 0x00	; 0
    18d4:	8e e1       	ldi	r24, 0x1E	; 30
    18d6:	98 9f       	mul	r25, r24
    18d8:	b0 01       	movw	r22, r0
    18da:	11 24       	eor	r1, r1
    18dc:	66 5a       	subi	r22, 0xA6	; 166
    18de:	7d 4f       	sbci	r23, 0xFD	; 253
    18e0:	0c c0       	rjmp	.+24     	; 0x18fa <UART_PushData+0x3a>
    18e2:	0e 94 f4 02 	call	0x5e8	; 0x5e8 <LCD_Clear>
    18e6:	60 e0       	ldi	r22, 0x00	; 0
    18e8:	81 e0       	ldi	r24, 0x01	; 1
    18ea:	0e 94 e8 02 	call	0x5d0	; 0x5d0 <LCD_SetCursor>
    18ee:	80 e2       	ldi	r24, 0x20	; 32
    18f0:	92 e0       	ldi	r25, 0x02	; 2
    18f2:	df 91       	pop	r29
    18f4:	cf 91       	pop	r28
    18f6:	0c 94 90 02 	jmp	0x520	; 0x520 <LCD_WriteString>
    18fa:	24 2f       	mov	r18, r20
    18fc:	30 e0       	ldi	r19, 0x00	; 0
    18fe:	de 01       	movw	r26, r28
    1900:	a2 0f       	add	r26, r18
    1902:	b3 1f       	adc	r27, r19
    1904:	5c 91       	ld	r21, X
    1906:	55 23       	and	r21, r21
    1908:	31 f0       	breq	.+12     	; 0x1916 <UART_PushData+0x56>
    190a:	db 01       	movw	r26, r22
    190c:	a2 0f       	add	r26, r18
    190e:	b3 1f       	adc	r27, r19
    1910:	5c 93       	st	X, r21
    1912:	4f 5f       	subi	r20, 0xFF	; 255
    1914:	f2 cf       	rjmp	.-28     	; 0x18fa <UART_PushData+0x3a>
    1916:	8e e1       	ldi	r24, 0x1E	; 30
    1918:	8e 9f       	mul	r24, r30
    191a:	a0 01       	movw	r20, r0
    191c:	8f 9f       	mul	r24, r31
    191e:	50 0d       	add	r21, r0
    1920:	11 24       	eor	r1, r1
    1922:	46 5a       	subi	r20, 0xA6	; 166
    1924:	5d 4f       	sbci	r21, 0xFD	; 253
    1926:	fa 01       	movw	r30, r20
    1928:	e2 0f       	add	r30, r18
    192a:	f3 1f       	adc	r31, r19
    192c:	10 82       	st	Z, r1
    192e:	9f 5f       	subi	r25, 0xFF	; 255
    1930:	90 93 57 02 	sts	0x0257, r25	; 0x800257 <Stack_index>
    1934:	df 91       	pop	r29
    1936:	cf 91       	pop	r28
    1938:	08 95       	ret

0000193a <UART_ReceiveStringAsynch>:
    193a:	20 91 58 02 	lds	r18, 0x0258	; 0x800258 <StrCompleteFlag>
    193e:	21 30       	cpi	r18, 0x01	; 1
    1940:	d1 f4       	brne	.+52     	; 0x1976 <UART_ReceiveStringAsynch+0x3c>
    1942:	20 91 56 02 	lds	r18, 0x0256	; 0x800256 <i>
    1946:	a2 eb       	ldi	r26, 0xB2	; 178
    1948:	b4 e0       	ldi	r27, 0x04	; 4
    194a:	48 2f       	mov	r20, r24
    194c:	fc 01       	movw	r30, r24
    194e:	3e 2f       	mov	r19, r30
    1950:	34 1b       	sub	r19, r20
    1952:	32 17       	cp	r19, r18
    1954:	18 f4       	brcc	.+6      	; 0x195c <UART_ReceiveStringAsynch+0x22>
    1956:	3d 91       	ld	r19, X+
    1958:	31 93       	st	Z+, r19
    195a:	f9 cf       	rjmp	.-14     	; 0x194e <UART_ReceiveStringAsynch+0x14>
    195c:	fc 01       	movw	r30, r24
    195e:	e2 0f       	add	r30, r18
    1960:	f1 1d       	adc	r31, r1
    1962:	10 82       	st	Z, r1
    1964:	0e 94 60 0c 	call	0x18c0	; 0x18c0 <UART_PushData>
    1968:	10 92 56 02 	sts	0x0256, r1	; 0x800256 <i>
    196c:	10 92 58 02 	sts	0x0258, r1	; 0x800258 <StrCompleteFlag>
    1970:	81 e0       	ldi	r24, 0x01	; 1
    1972:	80 93 14 05 	sts	0x0514, r24	; 0x800514 <Finish_Flag>
    1976:	08 95       	ret

00001978 <string_length>:
    1978:	9c 01       	movw	r18, r24
    197a:	80 e0       	ldi	r24, 0x00	; 0
    197c:	f9 01       	movw	r30, r18
    197e:	e8 0f       	add	r30, r24
    1980:	f1 1d       	adc	r31, r1
    1982:	90 81       	ld	r25, Z
    1984:	99 23       	and	r25, r25
    1986:	11 f0       	breq	.+4      	; 0x198c <string_length+0x14>
    1988:	8f 5f       	subi	r24, 0xFF	; 255
    198a:	f8 cf       	rjmp	.-16     	; 0x197c <string_length+0x4>
    198c:	08 95       	ret

0000198e <string_reverse>:
    198e:	cf 93       	push	r28
    1990:	df 93       	push	r29
    1992:	ec 01       	movw	r28, r24
    1994:	0e 94 bc 0c 	call	0x1978	; 0x1978 <string_length>
    1998:	90 e0       	ldi	r25, 0x00	; 0
    199a:	28 2f       	mov	r18, r24
    199c:	29 1b       	sub	r18, r25
    199e:	30 e0       	ldi	r19, 0x00	; 0
    19a0:	49 2f       	mov	r20, r25
    19a2:	50 e0       	ldi	r21, 0x00	; 0
    19a4:	42 17       	cp	r20, r18
    19a6:	53 07       	cpc	r21, r19
    19a8:	74 f4       	brge	.+28     	; 0x19c6 <string_reverse+0x38>
    19aa:	de 01       	movw	r26, r28
    19ac:	a4 0f       	add	r26, r20
    19ae:	b5 1f       	adc	r27, r21
    19b0:	4c 91       	ld	r20, X
    19b2:	21 50       	subi	r18, 0x01	; 1
    19b4:	31 09       	sbc	r19, r1
    19b6:	fe 01       	movw	r30, r28
    19b8:	e2 0f       	add	r30, r18
    19ba:	f3 1f       	adc	r31, r19
    19bc:	20 81       	ld	r18, Z
    19be:	2c 93       	st	X, r18
    19c0:	40 83       	st	Z, r20
    19c2:	9f 5f       	subi	r25, 0xFF	; 255
    19c4:	ea cf       	rjmp	.-44     	; 0x199a <string_reverse+0xc>
    19c6:	df 91       	pop	r29
    19c8:	cf 91       	pop	r28
    19ca:	08 95       	ret

000019cc <string_compare>:
    19cc:	dc 01       	movw	r26, r24
    19ce:	fb 01       	movw	r30, r22
    19d0:	9d 91       	ld	r25, X+
    19d2:	99 23       	and	r25, r25
    19d4:	29 f0       	breq	.+10     	; 0x19e0 <string_compare+0x14>
    19d6:	81 91       	ld	r24, Z+
    19d8:	98 17       	cp	r25, r24
    19da:	d1 f3       	breq	.-12     	; 0x19d0 <string_compare+0x4>
    19dc:	80 e0       	ldi	r24, 0x00	; 0
    19de:	08 95       	ret
    19e0:	81 e0       	ldi	r24, 0x01	; 1
    19e2:	08 95       	ret

000019e4 <NUM_tostring>:
    19e4:	cf 92       	push	r12
    19e6:	df 92       	push	r13
    19e8:	ef 92       	push	r14
    19ea:	ff 92       	push	r15
    19ec:	0f 93       	push	r16
    19ee:	1f 93       	push	r17
    19f0:	cf 93       	push	r28
    19f2:	df 93       	push	r29
    19f4:	ec 01       	movw	r28, r24
    19f6:	41 15       	cp	r20, r1
    19f8:	51 05       	cpc	r21, r1
    19fa:	61 05       	cpc	r22, r1
    19fc:	71 05       	cpc	r23, r1
    19fe:	29 f4       	brne	.+10     	; 0x1a0a <NUM_tostring+0x26>
    1a00:	80 e3       	ldi	r24, 0x30	; 48
    1a02:	88 83       	st	Y, r24
    1a04:	19 86       	std	Y+9, r1	; 0x09
    1a06:	80 e0       	ldi	r24, 0x00	; 0
    1a08:	37 c0       	rjmp	.+110    	; 0x1a78 <NUM_tostring+0x94>
    1a0a:	77 ff       	sbrs	r23, 7
    1a0c:	09 c0       	rjmp	.+18     	; 0x1a20 <NUM_tostring+0x3c>
    1a0e:	70 95       	com	r23
    1a10:	60 95       	com	r22
    1a12:	50 95       	com	r21
    1a14:	41 95       	neg	r20
    1a16:	5f 4f       	sbci	r21, 0xFF	; 255
    1a18:	6f 4f       	sbci	r22, 0xFF	; 255
    1a1a:	7f 4f       	sbci	r23, 0xFF	; 255
    1a1c:	01 e0       	ldi	r16, 0x01	; 1
    1a1e:	01 c0       	rjmp	.+2      	; 0x1a22 <NUM_tostring+0x3e>
    1a20:	00 e0       	ldi	r16, 0x00	; 0
    1a22:	10 e0       	ldi	r17, 0x00	; 0
    1a24:	8a e0       	ldi	r24, 0x0A	; 10
    1a26:	c8 2e       	mov	r12, r24
    1a28:	d1 2c       	mov	r13, r1
    1a2a:	e1 2c       	mov	r14, r1
    1a2c:	f1 2c       	mov	r15, r1
    1a2e:	cb 01       	movw	r24, r22
    1a30:	ba 01       	movw	r22, r20
    1a32:	a7 01       	movw	r20, r14
    1a34:	96 01       	movw	r18, r12
    1a36:	0e 94 81 0d 	call	0x1b02	; 0x1b02 <__divmodsi4>
    1a3a:	da 01       	movw	r26, r20
    1a3c:	ab 01       	movw	r20, r22
    1a3e:	bc 01       	movw	r22, r24
    1a40:	40 5d       	subi	r20, 0xD0	; 208
    1a42:	5f 4f       	sbci	r21, 0xFF	; 255
    1a44:	6f 4f       	sbci	r22, 0xFF	; 255
    1a46:	7f 4f       	sbci	r23, 0xFF	; 255
    1a48:	fe 01       	movw	r30, r28
    1a4a:	e1 0f       	add	r30, r17
    1a4c:	f1 1d       	adc	r31, r1
    1a4e:	40 83       	st	Z, r20
    1a50:	a9 01       	movw	r20, r18
    1a52:	bd 01       	movw	r22, r26
    1a54:	81 e0       	ldi	r24, 0x01	; 1
    1a56:	81 0f       	add	r24, r17
    1a58:	41 15       	cp	r20, r1
    1a5a:	51 05       	cpc	r21, r1
    1a5c:	61 05       	cpc	r22, r1
    1a5e:	71 05       	cpc	r23, r1
    1a60:	11 f0       	breq	.+4      	; 0x1a66 <NUM_tostring+0x82>
    1a62:	18 2f       	mov	r17, r24
    1a64:	e4 cf       	rjmp	.-56     	; 0x1a2e <NUM_tostring+0x4a>
    1a66:	01 30       	cpi	r16, 0x01	; 1
    1a68:	39 f4       	brne	.+14     	; 0x1a78 <NUM_tostring+0x94>
    1a6a:	fe 01       	movw	r30, r28
    1a6c:	e8 0f       	add	r30, r24
    1a6e:	f1 1d       	adc	r31, r1
    1a70:	8d e2       	ldi	r24, 0x2D	; 45
    1a72:	80 83       	st	Z, r24
    1a74:	82 e0       	ldi	r24, 0x02	; 2
    1a76:	81 0f       	add	r24, r17
    1a78:	fe 01       	movw	r30, r28
    1a7a:	e8 0f       	add	r30, r24
    1a7c:	f1 1d       	adc	r31, r1
    1a7e:	10 82       	st	Z, r1
    1a80:	ce 01       	movw	r24, r28
    1a82:	df 91       	pop	r29
    1a84:	cf 91       	pop	r28
    1a86:	1f 91       	pop	r17
    1a88:	0f 91       	pop	r16
    1a8a:	ff 90       	pop	r15
    1a8c:	ef 90       	pop	r14
    1a8e:	df 90       	pop	r13
    1a90:	cf 90       	pop	r12
    1a92:	0c 94 c7 0c 	jmp	0x198e	; 0x198e <string_reverse>

00001a96 <__udivmodhi4>:
    1a96:	aa 1b       	sub	r26, r26
    1a98:	bb 1b       	sub	r27, r27
    1a9a:	51 e1       	ldi	r21, 0x11	; 17
    1a9c:	07 c0       	rjmp	.+14     	; 0x1aac <__udivmodhi4_ep>

00001a9e <__udivmodhi4_loop>:
    1a9e:	aa 1f       	adc	r26, r26
    1aa0:	bb 1f       	adc	r27, r27
    1aa2:	a6 17       	cp	r26, r22
    1aa4:	b7 07       	cpc	r27, r23
    1aa6:	10 f0       	brcs	.+4      	; 0x1aac <__udivmodhi4_ep>
    1aa8:	a6 1b       	sub	r26, r22
    1aaa:	b7 0b       	sbc	r27, r23

00001aac <__udivmodhi4_ep>:
    1aac:	88 1f       	adc	r24, r24
    1aae:	99 1f       	adc	r25, r25
    1ab0:	5a 95       	dec	r21
    1ab2:	a9 f7       	brne	.-22     	; 0x1a9e <__udivmodhi4_loop>
    1ab4:	80 95       	com	r24
    1ab6:	90 95       	com	r25
    1ab8:	bc 01       	movw	r22, r24
    1aba:	cd 01       	movw	r24, r26
    1abc:	08 95       	ret

00001abe <__udivmodsi4>:
    1abe:	a1 e2       	ldi	r26, 0x21	; 33
    1ac0:	1a 2e       	mov	r1, r26
    1ac2:	aa 1b       	sub	r26, r26
    1ac4:	bb 1b       	sub	r27, r27
    1ac6:	fd 01       	movw	r30, r26
    1ac8:	0d c0       	rjmp	.+26     	; 0x1ae4 <__udivmodsi4_ep>

00001aca <__udivmodsi4_loop>:
    1aca:	aa 1f       	adc	r26, r26
    1acc:	bb 1f       	adc	r27, r27
    1ace:	ee 1f       	adc	r30, r30
    1ad0:	ff 1f       	adc	r31, r31
    1ad2:	a2 17       	cp	r26, r18
    1ad4:	b3 07       	cpc	r27, r19
    1ad6:	e4 07       	cpc	r30, r20
    1ad8:	f5 07       	cpc	r31, r21
    1ada:	20 f0       	brcs	.+8      	; 0x1ae4 <__udivmodsi4_ep>
    1adc:	a2 1b       	sub	r26, r18
    1ade:	b3 0b       	sbc	r27, r19
    1ae0:	e4 0b       	sbc	r30, r20
    1ae2:	f5 0b       	sbc	r31, r21

00001ae4 <__udivmodsi4_ep>:
    1ae4:	66 1f       	adc	r22, r22
    1ae6:	77 1f       	adc	r23, r23
    1ae8:	88 1f       	adc	r24, r24
    1aea:	99 1f       	adc	r25, r25
    1aec:	1a 94       	dec	r1
    1aee:	69 f7       	brne	.-38     	; 0x1aca <__udivmodsi4_loop>
    1af0:	60 95       	com	r22
    1af2:	70 95       	com	r23
    1af4:	80 95       	com	r24
    1af6:	90 95       	com	r25
    1af8:	9b 01       	movw	r18, r22
    1afa:	ac 01       	movw	r20, r24
    1afc:	bd 01       	movw	r22, r26
    1afe:	cf 01       	movw	r24, r30
    1b00:	08 95       	ret

00001b02 <__divmodsi4>:
    1b02:	05 2e       	mov	r0, r21
    1b04:	97 fb       	bst	r25, 7
    1b06:	1e f4       	brtc	.+6      	; 0x1b0e <__divmodsi4+0xc>
    1b08:	00 94       	com	r0
    1b0a:	0e 94 98 0d 	call	0x1b30	; 0x1b30 <__negsi2>
    1b0e:	57 fd       	sbrc	r21, 7
    1b10:	07 d0       	rcall	.+14     	; 0x1b20 <__divmodsi4_neg2>
    1b12:	0e 94 5f 0d 	call	0x1abe	; 0x1abe <__udivmodsi4>
    1b16:	07 fc       	sbrc	r0, 7
    1b18:	03 d0       	rcall	.+6      	; 0x1b20 <__divmodsi4_neg2>
    1b1a:	4e f4       	brtc	.+18     	; 0x1b2e <__divmodsi4_exit>
    1b1c:	0c 94 98 0d 	jmp	0x1b30	; 0x1b30 <__negsi2>

00001b20 <__divmodsi4_neg2>:
    1b20:	50 95       	com	r21
    1b22:	40 95       	com	r20
    1b24:	30 95       	com	r19
    1b26:	21 95       	neg	r18
    1b28:	3f 4f       	sbci	r19, 0xFF	; 255
    1b2a:	4f 4f       	sbci	r20, 0xFF	; 255
    1b2c:	5f 4f       	sbci	r21, 0xFF	; 255

00001b2e <__divmodsi4_exit>:
    1b2e:	08 95       	ret

00001b30 <__negsi2>:
    1b30:	90 95       	com	r25
    1b32:	80 95       	com	r24
    1b34:	70 95       	com	r23
    1b36:	61 95       	neg	r22
    1b38:	7f 4f       	sbci	r23, 0xFF	; 255
    1b3a:	8f 4f       	sbci	r24, 0xFF	; 255
    1b3c:	9f 4f       	sbci	r25, 0xFF	; 255
    1b3e:	08 95       	ret

00001b40 <__tablejump2__>:
    1b40:	ee 0f       	add	r30, r30
    1b42:	ff 1f       	adc	r31, r31
    1b44:	05 90       	lpm	r0, Z+
    1b46:	f4 91       	lpm	r31, Z
    1b48:	e0 2d       	mov	r30, r0
    1b4a:	09 94       	ijmp

00001b4c <__umulhisi3>:
    1b4c:	a2 9f       	mul	r26, r18
    1b4e:	b0 01       	movw	r22, r0
    1b50:	b3 9f       	mul	r27, r19
    1b52:	c0 01       	movw	r24, r0
    1b54:	a3 9f       	mul	r26, r19
    1b56:	70 0d       	add	r23, r0
    1b58:	81 1d       	adc	r24, r1
    1b5a:	11 24       	eor	r1, r1
    1b5c:	91 1d       	adc	r25, r1
    1b5e:	b2 9f       	mul	r27, r18
    1b60:	70 0d       	add	r23, r0
    1b62:	81 1d       	adc	r24, r1
    1b64:	11 24       	eor	r1, r1
    1b66:	91 1d       	adc	r25, r1
    1b68:	08 95       	ret

00001b6a <_exit>:
    1b6a:	f8 94       	cli

00001b6c <__stop_program>:
    1b6c:	ff cf       	rjmp	.-2      	; 0x1b6c <__stop_program>
